(dp0
ccopy_reg
_reconstructor
p1
(csuds.sax.text
Text
p2
c__builtin__
unicode
p3
VBIOMD0000000543
p4
tp5
Rp6
(dp7
S'lang'
p8
NsS'escaped'
p9
I00
sbS'Qi2013 - IL-6 and IFN crosstalk model (non-competitive)'
p10
sg1
(g2
g3
VBIOMD0000000542
p11
tp12
Rp13
(dp14
g8
Nsg9
I00
sbS'Yuraszeck2010 - Vulnerabilities in the Tau Network in Tau Pathophysiology'
p15
sg1
(g2
g3
VBIOMD0000000541
p16
tp17
Rp18
(dp19
g8
Nsg9
I00
sbS'Yugi2014 - Insulin induced signalling (PFKL phosphorylation) - model 2'
p20
sg1
(g2
g3
VBIOMD0000000540
p21
tp22
Rp23
(dp24
g8
Nsg9
I00
sbS'Yugi2014 - Insulin induced signalling (PFKL phosphorylation) - model 1'
p25
sg1
(g2
g3
VBIOMD0000000428
p26
tp27
Rp28
(dp29
g8
Nsg9
I00
sbS'Achcar2012 - Glycolysis in bloodstream form T. brucei'
p30
sg1
(g2
g3
VBIOMD0000000429
p31
tp32
Rp33
(dp34
g8
Nsg9
I00
sbS'Schaber2012 - Hog pathway in yeast'
p35
sg1
(g2
g3
VBIOMD0000000545
p36
tp37
Rp38
(dp39
g8
Nsg9
I00
sbS'Ouyang2014 - photomorphogenic UV-B signalling network'
p40
sg1
(g2
g3
VBIOMD0000000544
p41
tp42
Rp43
(dp44
g8
Nsg9
I00
sbS'Qi2013 - IL-6 and IFN crosstalk model'
p45
sg1
(g2
g3
VBIOMD0000000424
p46
tp47
Rp48
(dp49
g8
Nsg9
I00
sbS'Faratian2009_PTENrole_TrastuzumabResistance'
p50
sg1
(g2
g3
VBIOMD0000000425
p51
tp52
Rp53
(dp54
g8
Nsg9
I00
sbS'Tan2012 - Antibiotic Treatment, Inoculum Effect'
p55
sg1
(g2
g3
VBIOMD0000000426
p56
tp57
Rp58
(dp59
g8
Nsg9
I00
sbS'Mosca2012 - Central Carbon Metabolism Regulated by AKT'
p60
sg1
(g2
g3
VBIOMD0000000427
p61
tp62
Rp63
(dp64
g8
Nsg9
I00
sbS'Bianconi2012 - EGFR and IGF1R pathway in lung cancer'
p65
sg1
(g2
g3
VBIOMD0000000420
p66
tp67
Rp68
(dp69
g8
Nsg9
I00
sbS'Ratushny2012_ASSURE_I'
p70
sg1
(g2
g3
VBIOMD0000000421
p71
tp72
Rp73
(dp74
g8
Nsg9
I00
sbS'Ratushny2012_ASSURE_II'
p75
sg1
(g2
g3
VBIOMD0000000422
p76
tp77
Rp78
(dp79
g8
Nsg9
I00
sbS'Middleton2012_GibberellinSignalling'
p80
sg1
(g2
g3
VBIOMD0000000423
p81
tp82
Rp83
(dp84
g8
Nsg9
I00
sbS'Nyman2012_InsulinSignalling'
p85
sg1
(g2
g3
VBIOMD0000000547
p86
tp87
Rp88
(dp89
g8
Nsg9
I00
sbS'Talemi2014 - Arsenic toxicity and detoxification mechanisms in yeast'
p90
sg1
(g2
g3
VBIOMD0000000546
p91
tp92
Rp93
(dp94
g8
Nsg9
I00
sbS'Miao2010 - Innate and adaptive immune responses to primary Influenza A Virus infection'
p95
sg1
(g2
g3
VBIOMD0000000490
p96
tp97
Rp98
(dp99
g8
Nsg9
I00
sbS'Demin2013 - PKPD behaviour - 5-Lipoxygenase inhibitors'
p100
sg1
(g2
g3
VBIOMD0000000309
p101
tp102
Rp103
(dp104
g8
Nsg9
I00
sbS'Tyson2003_NegFB_Homeostasis'
p105
sg1
(g2
g3
VBIOMD0000000308
p106
tp107
Rp108
(dp109
g8
Nsg9
I00
sbS'Tyson2003_NegFB_Oscillator'
p110
sg1
(g2
g3
VBIOMD0000000301
p111
tp112
Rp113
(dp114
g8
Nsg9
I00
sbS'Friedland2009_Ara_RTC3_counter'
p115
sg1
(g2
g3
VBIOMD0000000300
p116
tp117
Rp118
(dp119
g8
Nsg9
I00
sbS'Schmierer2010_FIH_Ankyrins'
p120
sg1
(g2
g3
VBIOMD0000000303
p121
tp122
Rp123
(dp124
g8
Nsg9
I00
sbS'Liu2011_Complement_System'
p125
sg1
(g2
g3
VBIOMD0000000302
p126
tp127
Rp128
(dp129
g8
Nsg9
I00
sbS'Wang1996_Synaptic_Inhibition_Two_Neuron'
p130
sg1
(g2
g3
VBIOMD0000000305
p131
tp132
Rp133
(dp134
g8
Nsg9
I00
sbS'Kolomeisky2003_MyosinV_Processivity'
p135
sg1
(g2
g3
VBIOMD0000000304
p136
tp137
Rp138
(dp139
g8
Nsg9
I00
sbS'Plant1981_BurstingNerveCells'
p140
sg1
(g2
g3
VBIOMD0000000307
p141
tp142
Rp143
(dp144
g8
Nsg9
I00
sbS'Tyson2003_Substrate_Depletion_Osc'
p145
sg1
(g2
g3
VBIOMD0000000306
p146
tp147
Rp148
(dp149
g8
Nsg9
I00
sbS'Tyson2003_Activator_Inhibitor'
p150
sg1
(g2
g3
VBIOMD0000000548
p151
tp152
Rp153
(dp154
g8
Nsg9
I00
sbS"Sneppen2009 - Modeling proteasome dynamics in Parkinson's disease"
p155
sg1
(g2
g3
VBIOMD0000000493
p156
tp157
Rp158
(dp159
g8
Nsg9
I00
sbS'Schittler2010 - Cell fate of progenitor cells, osteoblasts or chondrocytes'
p160
sg1
(g2
g3
VBIOMD0000000158
p161
tp162
Rp163
(dp164
g8
Nsg9
I00
sbS'Zatorsky2006_p53_Model2'
p165
sg1
(g2
g3
VBIOMD0000000159
p166
tp167
Rp168
(dp169
g8
Nsg9
I00
sbS'Zatorsky2006_p53_Model1'
p170
sg1
(g2
g3
VBIOMD0000000495
p171
tp172
Rp173
(dp174
g8
Nsg9
I00
sbS'Sen2013 - Phospholipid Synthesis in P.knowlesi'
p175
sg1
(g2
g3
VBIOMD0000000015
p176
tp177
Rp178
(dp179
g8
Nsg9
I00
sbS'Curto1998_purineMetabol'
p180
sg1
(g2
g3
VBIOMD0000000014
p181
tp182
Rp183
(dp184
g8
Nsg9
I00
sbS'Levchenko2000_MAPK_Scaffold'
p185
sg1
(g2
g3
VBIOMD0000000017
p186
tp187
Rp188
(dp189
g8
Nsg9
I00
sbS'Hoefnagel2002_PyruvateBranches'
p190
sg1
(g2
g3
VBIOMD0000000016
p191
tp192
Rp193
(dp194
g8
Nsg9
I00
sbS'Goldbeter1995_CircClock'
p195
sg1
(g2
g3
VBIOMD0000000011
p196
tp197
Rp198
(dp199
g8
Nsg9
I00
sbS'Levchenko2000_MAPK_noScaffold'
p200
sg1
(g2
g3
VBIOMD0000000010
p201
tp202
Rp203
(dp204
g8
Nsg9
I00
sbS'Kholodenko2000 - Ultrasensitivity and negative feedback bring oscillations in MAPK cascade'
p205
sg1
(g2
g3
VBIOMD0000000013
p206
tp207
Rp208
(dp209
g8
Nsg9
I00
sbS'Poolman2004_CalvinCycle'
p210
sg1
(g2
g3
VBIOMD0000000012
p211
tp212
Rp213
(dp214
g8
Nsg9
I00
sbS'Elowitz2000 - Repressilator'
p215
sg1
(g2
g3
VBIOMD0000000019
p216
tp217
Rp218
(dp219
g8
Nsg9
I00
sbS'Schoeberl2002_EGF_MAPK'
p220
sg1
(g2
g3
VBIOMD0000000018
p221
tp222
Rp223
(dp224
g8
Nsg9
I00
sbS'Morrison1989_FolateCycle'
p225
sg1
(g2
g3
VBIOMD0000000250
p226
tp227
Rp228
(dp229
g8
Nsg9
I00
sbS'Nakakuki2010_CellFateDecision_Mechanistic'
p230
sg1
(g2
g3
VBIOMD0000000478
p231
tp232
Rp233
(dp234
g8
Nsg9
I00
sbS'Besozzi2012 - Oscillatory regimes in the Ras/cAMP/PKA pathway in S.cerevisiae'
p235
sg1
(g2
g3
VBIOMD0000000039
p236
tp237
Rp238
(dp239
g8
Nsg9
I00
sbS'Marhl2000_CaOscillations'
p240
sg1
(g2
g3
VBIOMD0000000038
p241
tp242
Rp243
(dp244
g8
Nsg9
I00
sbS'Rohwer2000_Phosphotransferase_System'
p245
sg1
(g2
g3
VBIOMD0000000122
p246
tp247
Rp248
(dp249
g8
Nsg9
I00
sbS'Fisher2006_Ca_Oscillation_dpdnt_NFAT_dynamics'
p250
sg1
(g2
g3
VBIOMD0000000161
p251
tp252
Rp253
(dp254
g8
Nsg9
I00
sbS'Eungdamrong2007_Ras_Activation'
p255
sg1
(g2
g3
VBIOMD0000000160
p256
tp257
Rp258
(dp259
g8
Nsg9
I00
sbS'Xie2007_CircClock'
p260
sg1
(g2
g3
VBIOMD0000000163
p261
tp262
Rp263
(dp264
g8
Nsg9
I00
sbS'Zi2007_TGFbeta_signaling'
p265
sg1
(g2
g3
VBIOMD0000000089
p266
tp267
Rp268
(dp269
g8
Nsg9
I00
sbS'Locke2006_CircClock_LL'
p270
sg1
(g2
g3
VBIOMD0000000165
p271
tp272
Rp273
(dp274
g8
Nsg9
I00
sbS'Saucerman2006_PKA'
p275
sg1
(g2
g3
VBIOMD0000000164
p276
tp277
Rp278
(dp279
g8
Nsg9
I00
sbS'SmithAE2002_RanTransport'
p280
sg1
(g2
g3
VBIOMD0000000167
p281
tp282
Rp283
(dp284
g8
Nsg9
I00
sbS'Mayya2005_STATmodule'
p285
sg1
(g2
g3
VBIOMD0000000166
p286
tp287
Rp288
(dp289
g8
Nsg9
I00
sbS'Zhu2007_TF_modulated_by_Calcium'
p290
sg1
(g2
g3
VBIOMD0000000169
p291
tp292
Rp293
(dp294
g8
Nsg9
I00
sbS'Aguda1999_CellCycle'
p295
sg1
(g2
g3
VBIOMD0000000168
p296
tp297
Rp298
(dp299
g8
Nsg9
I00
sbS'Obeyesekere1999_CellCycle'
p300
sg1
(g2
g3
VBIOMD0000000080
p301
tp302
Rp303
(dp304
g8
Nsg9
I00
sbS'Thomsen1989_AdenylateCyclase'
p305
sg1
(g2
g3
VBIOMD0000000081
p306
tp307
Rp308
(dp309
g8
Nsg9
I00
sbS'Suh2004_KCNQ_Regulation'
p310
sg1
(g2
g3
VBIOMD0000000086
p311
tp312
Rp313
(dp314
g8
Nsg9
I00
sbS'Bornheimer2004_GTPaseCycle'
p315
sg1
(g2
g3
VBIOMD0000000087
p316
tp317
Rp318
(dp319
g8
Nsg9
I00
sbS'Proctor2006_telomere'
p320
sg1
(g2
g3
VBIOMD0000000084
p321
tp322
Rp323
(dp324
g8
Nsg9
I00
sbS'Hornberg2005_ERKcascade'
p325
sg1
(g2
g3
VBIOMD0000000085
p326
tp327
Rp328
(dp329
g8
Nsg9
I00
sbS'Maurya2005_GTPaseCycle_reducedOrder'
p330
sg1
(g2
g3
VBIOMD0000000460
p331
tp332
Rp333
(dp334
g8
Nsg9
I00
sbS'Liebal2012 - B.subtilis sigB proteolysis model'
p335
sg1
(g2
g3
VBIOMD0000000461
p336
tp337
Rp338
(dp339
g8
Nsg9
I00
sbS'Liebal2012 - B.subtilis transcription inhibition model'
p340
sg1
(g2
g3
VBIOMD0000000462
p341
tp342
Rp343
(dp344
g8
Nsg9
I00
sbS'Proctor2012 - Amyloid-beta aggregation'
p345
sg1
(g2
g3
VBIOMD0000000463
p346
tp347
Rp348
(dp349
g8
Nsg9
I00
sbS'Heldt2012 - Influenza Virus Replication'
p350
sg1
(g2
g3
VBIOMD0000000464
p351
tp352
Rp353
(dp354
g8
Nsg9
I00
sbS'Koo2013 - Shear stress induced calcium influx and eNOS activation - Model 1'
p355
sg1
(g2
g3
VBIOMD0000000465
p356
tp357
Rp358
(dp359
g8
Nsg9
I00
sbS'Koo2013 - Shear stress induced AKT and eNOS phosphorylation - Model 2'
p360
sg1
(g2
g3
VBIOMD0000000466
p361
tp362
Rp363
(dp364
g8
Nsg9
I00
sbS'Koo2013 - Shear stress induced eNOS expression - Model 3'
p365
sg1
(g2
g3
VBIOMD0000000467
p366
tp367
Rp368
(dp369
g8
Nsg9
I00
sbS'Koo2013 - Shear stress induced NO production - Model 4'
p370
sg1
(g2
g3
VBIOMD0000000468
p371
tp372
Rp373
(dp374
g8
Nsg9
I00
sbS'Koo2013 - Integrated shear stress induced NO production model'
p375
sg1
(g2
g3
VBIOMD0000000469
p376
tp377
Rp378
(dp379
g8
Nsg9
I00
sbS'Smallbone2013 - E.coli metabolic model with linlog rate law'
p380
sg1
(g2
g3
VBIOMD0000000559
p381
tp382
Rp383
(dp384
g8
Nsg9
I00
sbS'Ouzounoglou2014 - Modeling of alpha-synuclein effects on neuronal homeostasis'
p385
sg1
(g2
g3
VBIOMD0000000498
p386
tp387
Rp388
(dp389
g8
Nsg9
I00
sbS'Mitchell2013 - Liver Iron Metabolism'
p390
sg1
(g2
g3
VBIOMD0000000349
p391
tp392
Rp393
(dp394
g8
Nsg9
I00
sbS'Fridlyand2010_GlucoseSensitivity_B'
p395
sg1
(g2
g3
VBIOMD0000000348
p396
tp397
Rp398
(dp399
g8
Nsg9
I00
sbS'Fridlyand2010_GlucoseSensitivity_A'
p400
sg1
(g2
g3
VBIOMD0000000345
p401
tp402
Rp403
(dp404
g8
Nsg9
I00
sbS'Koschorreck2008_InsulinClearance'
p405
sg1
(g2
g3
VBIOMD0000000344
p406
tp407
Rp408
(dp409
g8
Nsg9
I00
sbS'Proctor2011_ProteinHomeostasis_NormalCondition'
p410
sg1
(g2
g3
VBIOMD0000000347
p411
tp412
Rp413
(dp414
g8
Nsg9
I00
sbS'Bachmann2011_JAK2-STAT5_FeedbackControl'
p415
sg1
(g2
g3
VBIOMD0000000346
p416
tp417
Rp418
(dp419
g8
Nsg9
I00
sbS'FitzHugh1961_NerveMembrane'
p420
sg1
(g2
g3
VBIOMD0000000341
p421
tp422
Rp423
(dp424
g8
Nsg9
I00
sbS'Topp2000_BetaCellMass_Diabetes'
p425
sg1
(g2
g3
VBIOMD0000000340
p426
tp427
Rp428
(dp429
g8
Nsg9
I00
sbS'Wajima2009_BloodCoagulation_warfarin_heparin'
p430
sg1
(g2
g3
VBIOMD0000000343
p431
tp432
Rp433
(dp434
g8
Nsg9
I00
sbS'Brannmark2010_InsulinSignalling_Mifamodel'
p435
sg1
(g2
g3
VBIOMD0000000342
p436
tp437
Rp438
(dp439
g8
Nsg9
I00
sbS'Zi2011_TGF-beta_Pathway'
p440
sg1
(g2
g3
VBIOMD0000000266
p441
tp442
Rp443
(dp444
g8
Nsg9
I00
sbS'Voit2003_Trehalose_Cycle'
p445
sg1
(g2
g3
VBIOMD0000000267
p446
tp447
Rp448
(dp449
g8
Nsg9
I00
sbS'Lebeda2008_BoNT_Paralysis_3stepModel'
p450
sg1
(g2
g3
VBIOMD0000000264
p451
tp452
Rp453
(dp454
g8
Nsg9
I00
sbS'Fujita2010_Akt_Signalling_EGFRinhib'
p455
sg1
(g2
g3
VBIOMD0000000265
p456
tp457
Rp458
(dp459
g8
Nsg9
I00
sbS'Conradie2010_RPControl_CellCycle'
p460
sg1
(g2
g3
VBIOMD0000000262
p461
tp462
Rp463
(dp464
g8
Nsg9
I00
sbS'Fujita2010_Akt_Signalling_EGF'
p465
sg1
(g2
g3
VBIOMD0000000263
p466
tp467
Rp468
(dp469
g8
Nsg9
I00
sbS'Fujita2010_Akt_Signalling_NGF'
p470
sg1
(g2
g3
VBIOMD0000000260
p471
tp472
Rp473
(dp474
g8
Nsg9
I00
sbS'Tiago2010_FeMetabolism_FeAdequate'
p475
sg1
(g2
g3
VBIOMD0000000261
p476
tp477
Rp478
(dp479
g8
Nsg9
I00
sbS'Tiago2010_FeMetabolism_FeLoaded'
p480
sg1
(g2
g3
VBIOMD0000000268
p481
tp482
Rp483
(dp484
g8
Nsg9
I00
sbS'Reed2008_Glutathione_Metabolism'
p485
sg1
(g2
g3
VBIOMD0000000269
p486
tp487
Rp488
(dp489
g8
Nsg9
I00
sbS'Liu2010_Hormonal_Crosstalk_Arabidopsis'
p490
sg1
(g2
g3
VBIOMD0000000518
p491
tp492
Rp493
(dp494
g8
Nsg9
I00
sbS'Smallbone2013 - Colon Crypt cycle - Version 2'
p495
sg1
(g2
g3
VBIOMD0000000519
p496
tp497
Rp498
(dp499
g8
Nsg9
I00
sbS'Smallbone2013 - Colon Crypt cycle - Version 1'
p500
sg1
(g2
g3
VBIOMD0000000514
p501
tp502
Rp503
(dp504
g8
Nsg9
I00
sbS'Kerkhoven2013 - Glycolysis and Pentose Phosphate Pathway in T.brucei - MODEL B'
p505
sg1
(g2
g3
VBIOMD0000000515
p506
tp507
Rp508
(dp509
g8
Nsg9
I00
sbS'Kerkhoven2013 - Glycolysis and Pentose Phosphate Pathway in T.brucei - MODEL C in fructose medium (with glucosomal ribokinase)'
p510
sg1
(g2
g3
VBIOMD0000000516
p511
tp512
Rp513
(dp514
g8
Nsg9
I00
sbS'Kerkhoven2013 - Glycolysis and Pentose Phosphate Pathway in T.brucei - MODEL D in fructose medium (with ATP:ADP antiporter)'
p515
sg1
(g2
g3
VBIOMD0000000517
p516
tp517
Rp518
(dp519
g8
Nsg9
I00
sbS'Smallbone2013 - Colon Crypt cycle - Version 3'
p520
sg1
(g2
g3
VBIOMD0000000510
p521
tp522
Rp523
(dp524
g8
Nsg9
I00
sbS'Kerkhoven2013 - Glycolysis and Pentose Phosphate Pathway in T.brucei - MODEL C (with glucosomal ribokinase)'
p525
sg1
(g2
g3
VBIOMD0000000511
p526
tp527
Rp528
(dp529
g8
Nsg9
I00
sbS'Kerkhoven2013 - Glycolysis and Pentose Phosphate Pathway in T.brucei - MODEL D (with ATP:ADP antiporter)'
p530
sg1
(g2
g3
VBIOMD0000000512
p531
tp532
Rp533
(dp534
g8
Nsg9
I00
sbS'Benson2014 - FAAH inhibitors for the treatment of osteoarthritic pain'
p535
sg1
(g2
g3
VBIOMD0000000513
p536
tp537
Rp538
(dp539
g8
Nsg9
I00
sbS'Kerkhoven2013 - Glycolysis in T.brucei - MODEL A'
p540
sg1
(g2
g3
VBIOMD0000000549
p541
tp542
Rp543
(dp544
g8
Nsg9
I00
sbS'Baker2013 - Cytokine Mediated Inflammation in Rheumatoid Arthritis - Age Dependant'
p545
sg1
(g2
g3
VBIOMD0000000494
p546
tp547
Rp548
(dp549
g8
Nsg9
I00
sbS'Roblitz2013 - Menstrual Cycle following GnRH analogue administration'
p550
sg1
(g2
g3
VBIOMD0000000370
p551
tp552
Rp553
(dp554
g8
Nsg9
I00
sbS'Vinod2011_MitoticExit'
p555
sg1
(g2
g3
VBIOMD0000000371
p556
tp557
Rp558
(dp559
g8
Nsg9
I00
sbS'DeVries2000_PancreaticBetaCells_InsulinSecretion'
p560
sg1
(g2
g3
VBIOMD0000000375
p561
tp562
Rp563
(dp564
g8
Nsg9
I00
sbS'Mears1997_CRAC_PancreaticBetaCells'
p565
sg1
(g2
g3
VBIOMD0000000271
p566
tp567
Rp568
(dp569
g8
Nsg9
I00
sbS'Becker2010_EpoR_CoreModel'
p570
sg1
(g2
g3
VBIOMD0000000270
p571
tp572
Rp573
(dp574
g8
Nsg9
I00
sbS'Schilling2009_ERK_distributive'
p575
sg1
(g2
g3
VBIOMD0000000125
p576
tp577
Rp578
(dp579
g8
Nsg9
I00
sbS'Komarova2005_TheoreticalFramework_BasicArchitecture'
p580
sg1
(g2
g3
VBIOMD0000000124
p581
tp582
Rp583
(dp584
g8
Nsg9
I00
sbS'Wu2006_K+Channel'
p585
sg1
(g2
g3
VBIOMD0000000127
p586
tp587
Rp588
(dp589
g8
Nsg9
I00
sbS'Izhikevich2003_SpikingNeuron'
p590
sg1
(g2
g3
VBIOMD0000000126
p591
tp592
Rp593
(dp594
g8
Nsg9
I00
sbS'Clancy2002_CardiacSodiumChannel_WT'
p595
sg1
(g2
g3
VBIOMD0000000121
p596
tp597
Rp598
(dp599
g8
Nsg9
I00
sbS'Clancy2001_Kchannel'
p600
sg1
(g2
g3
VBIOMD0000000120
p601
tp602
Rp603
(dp604
g8
Nsg9
I00
sbS'Chan2004_TCell_receptor_activation'
p605
sg1
(g2
g3
VBIOMD0000000048
p606
tp607
Rp608
(dp609
g8
Nsg9
I00
sbS'Kholodenko1999_EGFRsignaling'
p610
sg1
(g2
g3
VBIOMD0000000049
p611
tp612
Rp613
(dp614
g8
Nsg9
I00
sbS'Sasagawa2005_MAPK'
p615
sg1
(g2
g3
VBIOMD0000000046
p616
tp617
Rp618
(dp619
g8
Nsg9
I00
sbS'Olsen2003_peroxidase'
p620
sg1
(g2
g3
VBIOMD0000000047
p621
tp622
Rp623
(dp624
g8
Nsg9
I00
sbS'Oxhamre2005_Ca_oscillation'
p625
sg1
(g2
g3
VBIOMD0000000044
p626
tp627
Rp628
(dp629
g8
Nsg9
I00
sbS'Borghans1997 - Calcium Oscillation - Model 2'
p630
sg1
(g2
g3
VBIOMD0000000045
p631
tp632
Rp633
(dp634
g8
Nsg9
I00
sbS'Borghans1997 - Calcium Oscillation - Model 3'
p635
sg1
(g2
g3
VBIOMD0000000042
p636
tp637
Rp638
(dp639
g8
Nsg9
I00
sbS'Nielsen1998_Glycolysis'
p640
sg1
(g2
g3
VBIOMD0000000043
p641
tp642
Rp643
(dp644
g8
Nsg9
I00
sbS'Borghans1997 - Calcium Oscillation - Model 1'
p645
sg1
(g2
g3
VBIOMD0000000040
p646
tp647
Rp648
(dp649
g8
Nsg9
I00
sbS'Field1974_Oregonator'
p650
sg1
(g2
g3
VBIOMD0000000041
p651
tp652
Rp653
(dp654
g8
Nsg9
I00
sbS'Kongas2007 - Creatine Kinase in energy metabolic signaling in muscle'
p655
sg1
(g2
g3
VBIOMD0000000381
p656
tp657
Rp658
(dp659
g8
Nsg9
I00
sbS'Maree2006_DuCa_Type1DiabetesModel'
p660
sg1
(g2
g3
VBIOMD0000000380
p661
tp662
Rp663
(dp664
g8
Nsg9
I00
sbS'Smallbone2011_TrehaloseBiosynthesis'
p665
sg1
(g2
g3
VBIOMD0000000228
p666
tp667
Rp668
(dp669
g8
Nsg9
I00
sbS'Swat2004_Mammalian_G1_S_Transition'
p670
sg1
(g2
g3
VBIOMD0000000229
p671
tp672
Rp673
(dp674
g8
Nsg9
I00
sbS'Ma2002_cAMP_oscillations'
p675
sg1
(g2
g3
VBIOMD0000000385
p676
tp677
Rp678
(dp679
g8
Nsg9
I00
sbS'Arnold2011_Schultz2003_RuBisCO-CalvinCycle'
p680
sg1
(g2
g3
VBIOMD0000000384
p681
tp682
Rp683
(dp684
g8
Nsg9
I00
sbS'Arnold2011_Medlyn2002_RuBisCO-CalvinCycle'
p685
sg1
(g2
g3
VBIOMD0000000387
p686
tp687
Rp688
(dp689
g8
Nsg9
I00
sbS'Arnold2011_Damour2007_RuBisCO-CalvinCycle'
p690
sg1
(g2
g3
VBIOMD0000000386
p691
tp692
Rp693
(dp694
g8
Nsg9
I00
sbS'Arnold2011_Sharkey2007_RuBisCO-CalvinCycle'
p695
sg1
(g2
g3
VBIOMD0000000389
p696
tp697
Rp698
(dp699
g8
Nsg9
I00
sbS'Arnold2011_Hahn1986_CalvinCycle_Starch_Sucrose'
p700
sg1
(g2
g3
VBIOMD0000000388
p701
tp702
Rp703
(dp704
g8
Nsg9
I00
sbS'Arnold2011_Zhu2009_CalvinCycle'
p705
sg1
(g2
g3
VBIOMD0000000220
p706
tp707
Rp708
(dp709
g8
Nsg9
I00
sbS'Albeck2008_extrinsic_apoptosis'
p710
sg1
(g2
g3
VBIOMD0000000221
p711
tp712
Rp713
(dp714
g8
Nsg9
I00
sbS'Singh2006_TCA_Ecoli_acetate'
p715
sg1
(g2
g3
VBIOMD0000000226
p716
tp717
Rp718
(dp719
g8
Nsg9
I00
sbS'Radulescu2008_NFkB_hierarchy_M_14_25_28_Lipniacky'
p720
sg1
(g2
g3
VBIOMD0000000227
p721
tp722
Rp723
(dp724
g8
Nsg9
I00
sbS'Radulescu2008_NFkB_hierarchy_M_39_65_90'
p725
sg1
(g2
g3
VBIOMD0000000224
p726
tp727
Rp728
(dp729
g8
Nsg9
I00
sbS'Meyer1991_CalciumSpike_ICC'
p730
sg1
(g2
g3
VBIOMD0000000225
p731
tp732
Rp733
(dp734
g8
Nsg9
I00
sbS'Westermark2003_Pancreatic_GlycOsc_basic'
p735
sg1
(g2
g3
VBIOMD0000000419
p736
tp737
Rp738
(dp739
g8
Nsg9
I00
sbS'Ratushny2012_SPF_I'
p740
sg1
(g2
g3
VBIOMD0000000418
p741
tp742
Rp743
(dp744
g8
Nsg9
I00
sbS'Ratushny2012_SPF'
p745
sg1
(g2
g3
VBIOMD0000000552
p746
tp747
Rp748
(dp749
g8
Nsg9
I00
sbS"Ehrenstein2000 - Positive-Feedback model for the loss of acetylcholine in Alzheimer's disease"
p750
sg1
(g2
g3
VBIOMD0000000553
p751
tp752
Rp753
(dp754
g8
Nsg9
I00
sbS"Ehrenstein1997 - The choline-leakage hypothesis in Alzheimer's disease"
p755
sg1
(g2
g3
VBIOMD0000000554
p756
tp757
Rp758
(dp759
g8
Nsg9
I00
sbS'Cloutier2009 - Brain Energy Metabolism'
p760
sg1
(g2
g3
VBIOMD0000000555
p761
tp762
Rp763
(dp764
g8
Nsg9
I00
sbS'Auer2010 - Correlation between lag time and aggregation rate in protein aggregation'
p765
sg1
(g2
g3
VBIOMD0000000556
p766
tp767
Rp768
(dp769
g8
Nsg9
I00
sbS'Ortega2013 - Interplay between secretases determines biphasic amyloid-beta level'
p770
sg1
(g2
g3
VBIOMD0000000557
p771
tp772
Rp773
(dp774
g8
Nsg9
I00
sbS'Reiterer2013 - pseudophosphatase STYX role in ERK signalling'
p775
sg1
(g2
g3
VBIOMD0000000411
p776
tp777
Rp778
(dp779
g8
Nsg9
I00
sbS'Heiland2012_CircadianClock_C.reinhardtii'
p780
sg1
(g2
g3
VBIOMD0000000410
p781
tp782
Rp783
(dp784
g8
Nsg9
I00
sbS'Wegner2012_TGFbetaSignalling_FeedbackLoops'
p785
sg1
(g2
g3
VBIOMD0000000413
p786
tp787
Rp788
(dp789
g8
Nsg9
I00
sbS'Band2012_DII-Venus_FullModel'
p790
sg1
(g2
g3
VBIOMD0000000412
p791
tp792
Rp793
(dp794
g8
Nsg9
I00
sbS'Pokhilko2012_CircClock_RepressilatorFeedbackloop'
p795
sg1
(g2
g3
VBIOMD0000000415
p796
tp797
Rp798
(dp799
g8
Nsg9
I00
sbS'Mellor2012_LipooxygenasePathway'
p800
sg1
(g2
g3
VBIOMD0000000414
p801
tp802
Rp803
(dp804
g8
Nsg9
I00
sbS'Band2012_DII-Venus_ReducedModel'
p805
sg1
(g2
g3
VBIOMD0000000417
p806
tp807
Rp808
(dp809
g8
Nsg9
I00
sbS'Ratushny2012_NF'
p810
sg1
(g2
g3
VBIOMD0000000416
p811
tp812
Rp813
(dp814
g8
Nsg9
I00
sbS'Muraro2011_Cytokinin-Auxin_CrossRegulation'
p815
sg1
(g2
g3
VBIOMD0000000316
p816
tp817
Rp818
(dp819
g8
Nsg9
I00
sbS'Shen-Orr2002_FeedForward_AND_gate'
p820
sg1
(g2
g3
VBIOMD0000000317
p821
tp822
Rp823
(dp824
g8
Nsg9
I00
sbS'Shen-Orr2002_Single_Input_Module'
p825
sg1
(g2
g3
VBIOMD0000000314
p826
tp827
Rp828
(dp829
g8
Nsg9
I00
sbS'Raia2011_IL13_L1236'
p830
sg1
(g2
g3
VBIOMD0000000315
p831
tp832
Rp833
(dp834
g8
Nsg9
I00
sbS'Montagne2011_Oligator_optimised'
p835
sg1
(g2
g3
VBIOMD0000000312
p836
tp837
Rp838
(dp839
g8
Nsg9
I00
sbS'Tyson2003_Perfect_Adaption'
p840
sg1
(g2
g3
VBIOMD0000000313
p841
tp842
Rp843
(dp844
g8
Nsg9
I00
sbS'Raia2010_IL13_Signalling_MedB1'
p845
sg1
(g2
g3
VBIOMD0000000259
p846
tp847
Rp848
(dp849
g8
Nsg9
I00
sbS'Tiago2010_FeMetabolism_FeDeficient'
p850
sg1
(g2
g3
VBIOMD0000000258
p851
tp852
Rp853
(dp854
g8
Nsg9
I00
sbS'Ortega2006_bistability_doublePhosphorylation'
p855
sg1
(g2
g3
VBIOMD0000000257
p856
tp857
Rp858
(dp859
g8
Nsg9
I00
sbS'Piedrafita2010_MR_System'
p860
sg1
(g2
g3
VBIOMD0000000256
p861
tp862
Rp863
(dp864
g8
Nsg9
I00
sbS'Rehm2006_Caspase'
p865
sg1
(g2
g3
VBIOMD0000000255
p866
tp867
Rp868
(dp869
g8
Nsg9
I00
sbS'Chen2009_ErbB_Signaling'
p870
sg1
(g2
g3
VBIOMD0000000254
p871
tp872
Rp873
(dp874
g8
Nsg9
I00
sbS'Bier2000_GlycolyticOscillation'
p875
sg1
(g2
g3
VBIOMD0000000253
p876
tp877
Rp878
(dp879
g8
Nsg9
I00
sbS'Teusink1998_Glycolysis_TurboDesign'
p880
sg1
(g2
g3
VBIOMD0000000252
p881
tp882
Rp883
(dp884
g8
Nsg9
I00
sbS'Hunziker2010_p53_StressSpecificResponse'
p885
sg1
(g2
g3
VBIOMD0000000318
p886
tp887
Rp888
(dp889
g8
Nsg9
I00
sbS'Yao2008_Rb_E2F_Switch'
p890
sg1
(g2
g3
VBIOMD0000000319
p891
tp892
Rp893
(dp894
g8
Nsg9
I00
sbS'Decroly1982_Enzymatic_Oscillator'
p895
sg1
(g2
g3
VBIOMD0000000530
p896
tp897
Rp898
(dp899
g8
Nsg9
I00
sbS'Schmitz2014 - RNA triplex formation'
p900
sg1
(g2
g3
VBIOMD0000000531
p901
tp902
Rp903
(dp904
g8
Nsg9
I00
sbS'Crespo2012 - Kinetics of Amyloid Fibril Formation'
p905
sg1
(g2
g3
VBIOMD0000000538
p906
tp907
Rp908
(dp909
g8
Nsg9
I00
sbS'Clarke2000 - One-hit model of cell death in neuronal degenerations'
p910
sg1
(g2
g3
VBIOMD0000000539
p911
tp912
Rp913
(dp914
g8
Nsg9
I00
sbS'Fran\xc3\xa7ois2005 - Mixed Feedback Loop (two-gene network)'
p915
sg1
(g2
g3
VBIOMD0000000002
p916
tp917
Rp918
(dp919
g8
Nsg9
I00
sbS'Edelstein1996 - EPSP ACh species'
p920
sg1
(g2
g3
VBIOMD0000000003
p921
tp922
Rp923
(dp924
g8
Nsg9
I00
sbS'Goldbeter1991 - Min Mit Oscil'
p925
sg1
(g2
g3
VBIOMD0000000001
p926
tp927
Rp928
(dp929
g8
Nsg9
I00
sbS'Edelstein1996 - EPSP ACh event'
p930
sg1
(g2
g3
VBIOMD0000000006
p931
tp932
Rp933
(dp934
g8
Nsg9
I00
sbS'Tyson1991 - Cell Cycle 2 var'
p935
sg1
(g2
g3
VBIOMD0000000007
p936
tp937
Rp938
(dp939
g8
Nsg9
I00
sbS'Novak1997 - Cell Cycle'
p940
sg1
(g2
g3
VBIOMD0000000004
p941
tp942
Rp943
(dp944
g8
Nsg9
I00
sbS'Goldbeter1991 - Min Mit Oscil, Expl Inact'
p945
sg1
(g2
g3
VBIOMD0000000005
p946
tp947
Rp948
(dp949
g8
Nsg9
I00
sbS'Tyson1991 - Cell Cycle 6 var'
p950
sg1
(g2
g3
VBIOMD0000000008
p951
tp952
Rp953
(dp954
g8
Nsg9
I00
sbS'Gardner1998 - Cell Cycle Goldbeter'
p955
sg1
(g2
g3
VBIOMD0000000009
p956
tp957
Rp958
(dp959
g8
Nsg9
I00
sbS'Huang1996 - Ultrasensitivity in MAPK cascade'
p960
sg1
(g2
g3
VBIOMD0000000183
p961
tp962
Rp963
(dp964
g8
Nsg9
I00
sbS'Stefan2008_calmodulin_allostery'
p965
sg1
(g2
g3
VBIOMD0000000182
p966
tp967
Rp968
(dp969
g8
Nsg9
I00
sbS'Neves2008 - Role of cell shape and size in controlling intracellular signalling'
p970
sg1
(g2
g3
VBIOMD0000000181
p971
tp972
Rp973
(dp974
g8
Nsg9
I00
sbS'Sriram2007_CellCycle'
p975
sg1
(g2
g3
VBIOMD0000000180
p976
tp977
Rp978
(dp979
g8
Nsg9
I00
sbS'Kim2007_CellularMemory_SymmetricModel'
p980
sg1
(g2
g3
VBIOMD0000000187
p981
tp982
Rp983
(dp984
g8
Nsg9
I00
sbS'Ibrahim2008 - Mitotic Spindle Assembly Checkpoint - Convey variant'
p985
sg1
(g2
g3
VBIOMD0000000186
p986
tp987
Rp988
(dp989
g8
Nsg9
I00
sbS'Ibrahim2008 - Mitotic Spindle Assembly Checkpoint - Dissociation variant'
p990
sg1
(g2
g3
VBIOMD0000000185
p991
tp992
Rp993
(dp994
g8
Nsg9
I00
sbS'Locke2008_Circadian_Clock'
p995
sg1
(g2
g3
VBIOMD0000000184
p996
tp997
Rp998
(dp999
g8
Nsg9
I00
sbS'Lavrentovich2008_Ca_Oscillations'
p1000
sg1
(g2
g3
VBIOMD0000000189
p1001
tp1002
Rp1003
(dp1004
g8
Nsg9
I00
sbS'Proctor2008_p53_Mdm2_ARF'
p1005
sg1
(g2
g3
VBIOMD0000000188
p1006
tp1007
Rp1008
(dp1009
g8
Nsg9
I00
sbS'Proctor2008_p53_Mdm2_ATM'
p1010
sg1
(g2
g3
VBIOMD0000000178
p1011
tp1012
Rp1013
(dp1014
g8
Nsg9
I00
sbS'Lebeda2008_BoTN_Paralysis_4stepModel'
p1015
sg1
(g2
g3
VBIOMD0000000179
p1016
tp1017
Rp1018
(dp1019
g8
Nsg9
I00
sbS'Kim2007_CellularMemory_AsymmetricModel'
p1020
sg1
(g2
g3
VBIOMD0000000176
p1021
tp1022
Rp1023
(dp1024
g8
Nsg9
I00
sbS'Conant2007_WGD_glycolysis_2A3AB'
p1025
sg1
(g2
g3
VBIOMD0000000177
p1026
tp1027
Rp1028
(dp1029
g8
Nsg9
I00
sbS'Conant2007_glycolysis_2C'
p1030
sg1
(g2
g3
VBIOMD0000000174
p1031
tp1032
Rp1033
(dp1034
g8
Nsg9
I00
sbS'Del_Conte_Zerial2008_Rab5_Rab7_cut_out_switch'
p1035
sg1
(g2
g3
VBIOMD0000000175
p1036
tp1037
Rp1038
(dp1039
g8
Nsg9
I00
sbS'Birtwistle2007_ErbB_Signalling'
p1040
sg1
(g2
g3
VBIOMD0000000172
p1041
tp1042
Rp1043
(dp1044
g8
Nsg9
I00
sbS'Pritchard2002_glycolysis'
p1045
sg1
(g2
g3
VBIOMD0000000173
p1046
tp1047
Rp1048
(dp1049
g8
Nsg9
I00
sbS'Schmierer_2008_Smad_Tgfb'
p1050
sg1
(g2
g3
VBIOMD0000000170
p1051
tp1052
Rp1053
(dp1054
g8
Nsg9
I00
sbS'Weimann2004_CircadianOscillator'
p1055
sg1
(g2
g3
VBIOMD0000000171
p1056
tp1057
Rp1058
(dp1059
g8
Nsg9
I00
sbS'Leloup1998_CircClock_LD'
p1060
sg1
(g2
g3
VBIOMD0000000077
p1061
tp1062
Rp1063
(dp1064
g8
Nsg9
I00
sbS'Blum2000_LHsecretion_1'
p1065
sg1
(g2
g3
VBIOMD0000000076
p1066
tp1067
Rp1068
(dp1069
g8
Nsg9
I00
sbS'Cronwright2002_Glycerol_Synthesis'
p1070
sg1
(g2
g3
VBIOMD0000000075
p1071
tp1072
Rp1073
(dp1074
g8
Nsg9
I00
sbS'Xu2003_Phosphoinositide_turnover'
p1075
sg1
(g2
g3
VBIOMD0000000074
p1076
tp1077
Rp1078
(dp1079
g8
Nsg9
I00
sbS'Leloup2003_CircClock_DD_REV-ERBalpha'
p1080
sg1
(g2
g3
VBIOMD0000000073
p1081
tp1082
Rp1083
(dp1084
g8
Nsg9
I00
sbS'Leloup2003_CircClock_DD'
p1085
sg1
(g2
g3
VBIOMD0000000072
p1086
tp1087
Rp1088
(dp1089
g8
Nsg9
I00
sbS'Yi2003_GproteinCycle'
p1090
sg1
(g2
g3
VBIOMD0000000071
p1091
tp1092
Rp1093
(dp1094
g8
Nsg9
I00
sbS'Bakker2001_Glycolysis'
p1095
sg1
(g2
g3
VBIOMD0000000070
p1096
tp1097
Rp1098
(dp1099
g8
Nsg9
I00
sbS'Holzhutter2004_Erythrocyte_Metabolism'
p1100
sg1
(g2
g3
VBIOMD0000000079
p1101
tp1102
Rp1103
(dp1104
g8
Nsg9
I00
sbS'Goldbeter2006_weightCycling'
p1105
sg1
(g2
g3
VBIOMD0000000078
p1106
tp1107
Rp1108
(dp1109
g8
Nsg9
I00
sbS'Leloup2003_CircClock_LD'
p1110
sg1
(g2
g3
VBIOMD0000000358
p1111
tp1112
Rp1113
(dp1114
g8
Nsg9
I00
sbS'Stortelder1997 - Thrombin Generation Amidolytic Activity'
p1115
sg1
(g2
g3
VBIOMD0000000359
p1116
tp1117
Rp1118
(dp1119
g8
Nsg9
I00
sbS'Panteleev2002_TFPImechanism_schmema3'
p1120
sg1
(g2
g3
VBIOMD0000000123
p1121
tp1122
Rp1123
(dp1124
g8
Nsg9
I00
sbS'Fisher2006_NFAT_Activation'
p1125
sg1
(g2
g3
VBIOMD0000000352
p1126
tp1127
Rp1128
(dp1129
g8
Nsg9
I00
sbS'Vernoux2011_AuxinSignaling_AuxinFluctuating'
p1130
sg1
(g2
g3
VBIOMD0000000353
p1131
tp1132
Rp1133
(dp1134
g8
Nsg9
I00
sbS'Nag2011_ChloroplasticStarchDegradation'
p1135
sg1
(g2
g3
VBIOMD0000000350
p1136
tp1137
Rp1138
(dp1139
g8
Nsg9
I00
sbS'Troein2011_ClockCircuit_OstreococcusTauri'
p1140
sg1
(g2
g3
VBIOMD0000000351
p1141
tp1142
Rp1143
(dp1144
g8
Nsg9
I00
sbS'Vernoux2011_AuxinSignaling_AuxinSingleStepInput'
p1145
sg1
(g2
g3
VBIOMD0000000356
p1146
tp1147
Rp1148
(dp1149
g8
Nsg9
I00
sbS'Nyman2011_M3Hierarachical_InsulinGlucosedynamics'
p1150
sg1
(g2
g3
VBIOMD0000000357
p1151
tp1152
Rp1153
(dp1154
g8
Nsg9
I00
sbS'Lee2010_ThrombinActivation_OneForm_reduced'
p1155
sg1
(g2
g3
VBIOMD0000000354
p1156
tp1157
Rp1158
(dp1159
g8
Nsg9
I00
sbS'Abell2011_CalciumSignaling_WithoutAdaptation'
p1160
sg1
(g2
g3
VBIOMD0000000355
p1161
tp1162
Rp1163
(dp1164
g8
Nsg9
I00
sbS'Abell2011_CalciumSignaling_WithAdaptation'
p1165
sg1
(g2
g3
VBIOMD0000000213
p1166
tp1167
Rp1168
(dp1169
g8
Nsg9
I00
sbS'Nijhout2004_Folate_Cycle'
p1170
sg1
(g2
g3
VBIOMD0000000212
p1171
tp1172
Rp1173
(dp1174
g8
Nsg9
I00
sbS'Curien2009_Aspartate_Metabolism'
p1175
sg1
(g2
g3
VBIOMD0000000211
p1176
tp1177
Rp1178
(dp1179
g8
Nsg9
I00
sbS'Albert2005_Glycolysis'
p1180
sg1
(g2
g3
VBIOMD0000000210
p1181
tp1182
Rp1183
(dp1184
g8
Nsg9
I00
sbS'Chickarmane2008 - Stem cell lineage - NANOG GATA-6 switch'
p1185
sg1
(g2
g3
VBIOMD0000000217
p1186
tp1187
Rp1188
(dp1189
g8
Nsg9
I00
sbS'Bruggeman2005_AmmoniumAssimilation'
p1190
sg1
(g2
g3
VBIOMD0000000216
p1191
tp1192
Rp1193
(dp1194
g8
Nsg9
I00
sbS'Hong2009_CircadianClock'
p1195
sg1
(g2
g3
VBIOMD0000000215
p1196
tp1197
Rp1198
(dp1199
g8
Nsg9
I00
sbS'Schulz2009_Th1_differentiation'
p1200
sg1
(g2
g3
VBIOMD0000000214
p1201
tp1202
Rp1203
(dp1204
g8
Nsg9
I00
sbS'Akman2008_Circadian_Clock_Model2'
p1205
sg1
(g2
g3
VBIOMD0000000219
p1206
tp1207
Rp1208
(dp1209
g8
Nsg9
I00
sbS'Singh2006_TCA_mtu_model1'
p1210
sg1
(g2
g3
VBIOMD0000000218
p1211
tp1212
Rp1213
(dp1214
g8
Nsg9
I00
sbS'Singh2006_TCA_mtu_model2'
p1215
sg1
(g2
g3
VBIOMD0000000529
p1216
tp1217
Rp1218
(dp1219
g8
Nsg9
I00
sbS'Fribourg2014 - Dynamics of viral antagonism and innate immune response (H1N1 influenza A virus - NC/99)'
p1220
sg1
(g2
g3
VBIOMD0000000528
p1221
tp1222
Rp1223
(dp1224
g8
Nsg9
I00
sbS'Fribourg2014 - Dynamics of viral antagonism and innate immune response (H1N1 influenza A virus - Cal/09)'
p1225
sg1
(g2
g3
VBIOMD0000000521
p1226
tp1227
Rp1228
(dp1229
g8
Nsg9
I00
sbS'Ribba2012 - Low-grade gliomas, tumour growth inhibition model'
p1230
sg1
(g2
g3
VBIOMD0000000129
p1231
tp1232
Rp1233
(dp1234
g8
Nsg9
I00
sbS'Izhikevich2004_SpikingNeurons_inhibitionInducedSpiking'
p1235
sg1
(g2
g3
VBIOMD0000000523
p1236
tp1237
Rp1238
(dp1239
g8
Nsg9
I00
sbS'Kallenberger2014 - CD95L induced apoptosis initiated by caspase-8, CD95 HeLa cells (cis/trans variant)'
p1240
sg1
(g2
g3
VBIOMD0000000522
p1241
tp1242
Rp1243
(dp1244
g8
Nsg9
I00
sbS'Muraro2014 - Vascular patterning in Arabidopsis roots'
p1245
sg1
(g2
g3
VBIOMD0000000525
p1246
tp1247
Rp1248
(dp1249
g8
Nsg9
I00
sbS'Kallenberger2014 - CD95L induced apoptosis initiated by caspase-8, CD95 HeLa cells (cis/trans-cis/trans variant)'
p1250
sg1
(g2
g3
VBIOMD0000000524
p1251
tp1252
Rp1253
(dp1254
g8
Nsg9
I00
sbS'Kallenberger2014 - CD95L induced apoptosis initiated by caspase-8, wild-type HeLa cells (cis/trans variant)'
p1255
sg1
(g2
g3
VBIOMD0000000527
p1256
tp1257
Rp1258
(dp1259
g8
Nsg9
I00
sbS'Kaiser2014 - Salmonella persistence after ciprofloxacin treatment'
p1260
sg1
(g2
g3
VBIOMD0000000128
p1261
tp1262
Rp1263
(dp1264
g8
Nsg9
I00
sbS'Bertram2006_Endothelin'
p1265
sg1
(g2
g3
VBIOMD0000000459
p1266
tp1267
Rp1268
(dp1269
g8
Nsg9
I00
sbS'Liebal2012 - B.subtilis post-transcriptional instability model'
p1270
sg1
(g2
g3
VBIOMD0000000458
p1271
tp1272
Rp1273
(dp1274
g8
Nsg9
I00
sbS'Smallbone2013 - Serine biosynthesis'
p1275
sg1
(g2
g3
VBIOMD0000000329
p1276
tp1277
Rp1278
(dp1279
g8
Nsg9
I00
sbS'Kummer2000_CalciumSpiking'
p1280
sg1
(g2
g3
VBIOMD0000000328
p1281
tp1282
Rp1283
(dp1284
g8
Nsg9
I00
sbS'Bucher2011_Atorvastatin_Metabolism'
p1285
sg1
(g2
g3
VBIOMD0000000455
p1286
tp1287
Rp1288
(dp1289
g8
Nsg9
I00
sbS'Smallbone2013 - Metabolic Control Analysis - Example 2'
p1290
sg1
(g2
g3
VBIOMD0000000454
p1291
tp1292
Rp1293
(dp1294
g8
Nsg9
I00
sbS'Smallbone2013 - Metabolic Control Analysis - Example 1'
p1295
sg1
(g2
g3
VBIOMD0000000457
p1296
tp1297
Rp1298
(dp1299
g8
Nsg9
I00
sbS'Firczuk2013 - Eukaryotic mRNA translation machinery'
p1300
sg1
(g2
g3
VBIOMD0000000456
p1301
tp1302
Rp1303
(dp1304
g8
Nsg9
I00
sbS'Smallbone2013 - Metabolic Control Analysis - Example 3'
p1305
sg1
(g2
g3
VBIOMD0000000451
p1306
tp1307
Rp1308
(dp1309
g8
Nsg9
I00
sbS'Carbo2013 - Cytokine driven CD4+ T Cell differentiation and phenotype plasticity'
p1310
sg1
(g2
g3
VBIOMD0000000450
p1311
tp1312
Rp1313
(dp1314
g8
Nsg9
I00
sbS'Reyes-Palomares2012 -  a combined model hepatic polyamine and sulfur aminoacid metabolism - version2'
p1315
sg1
(g2
g3
VBIOMD0000000453
p1316
tp1317
Rp1318
(dp1319
g8
Nsg9
I00
sbS'Bidkhori2012 - EGFR signalling in NSCLC'
p1320
sg1
(g2
g3
VBIOMD0000000452
p1321
tp1322
Rp1323
(dp1324
g8
Nsg9
I00
sbS'Bidkhori2012 - normal EGFR signalling'
p1325
sg1
(g2
g3
VBIOMD0000000442
p1326
tp1327
Rp1328
(dp1329
g8
Nsg9
I00
sbS'Sarma2012 - Oscillations in MAPK cascade (S2), inclusion of external signalling module'
p1330
sg1
(g2
g3
VBIOMD0000000443
p1331
tp1332
Rp1333
(dp1334
g8
Nsg9
I00
sbS'Sarma2012 - Oscillations in MAPK cascade (S1n)'
p1335
sg1
(g2
g3
VBIOMD0000000440
p1336
tp1337
Rp1338
(dp1339
g8
Nsg9
I00
sbS'Sarma2012 - Oscillations in MAPK cascade (S1)'
p1340
sg1
(g2
g3
VBIOMD0000000441
p1341
tp1342
Rp1343
(dp1344
g8
Nsg9
I00
sbS'Sarma2012 - Oscillations in MAPK cascade (S2)'
p1345
sg1
(g2
g3
VBIOMD0000000330
p1346
tp1347
Rp1348
(dp1349
g8
Nsg9
I00
sbS'Larsen2004_CalciumSpiking'
p1350
sg1
(g2
g3
VBIOMD0000000447
p1351
tp1352
Rp1353
(dp1354
g8
Nsg9
I00
sbS'Venkatraman2012 - Interplay between PLS and TSP1 in TGF-\xce\xb21 activation'
p1355
sg1
(g2
g3
VBIOMD0000000444
p1356
tp1357
Rp1358
(dp1359
g8
Nsg9
I00
sbS'Sarma2012 - Oscillations in MAPK cascade (S2n)'
p1360
sg1
(g2
g3
VBIOMD0000000445
p1361
tp1362
Rp1363
(dp1364
g8
Nsg9
I00
sbS'Pokhilko2013 - TOC1 signalling in Arabidopsis circadian clock'
p1365
sg1
(g2
g3
VBIOMD0000000162
p1366
tp1367
Rp1368
(dp1369
g8
Nsg9
I00
sbS'Hernjak2005_Calcium_Signaling'
p1370
sg1
(g2
g3
VBIOMD0000000132
p1371
tp1372
Rp1373
(dp1374
g8
Nsg9
I00
sbS'Izhikevich2004_SpikingNeurons_reboundSpike'
p1375
sg1
(g2
g3
VBIOMD0000000133
p1376
tp1377
Rp1378
(dp1379
g8
Nsg9
I00
sbS'Izhikevich2004_SpikingNeurons_resonator'
p1380
sg1
(g2
g3
VBIOMD0000000130
p1381
tp1382
Rp1383
(dp1384
g8
Nsg9
I00
sbS'Izhikevich2004_SpikingNeurons_integrator'
p1385
sg1
(g2
g3
VBIOMD0000000131
p1386
tp1387
Rp1388
(dp1389
g8
Nsg9
I00
sbS'Izhikevich2004_SpikingNeurons_reboundBurst'
p1390
sg1
(g2
g3
VBIOMD0000000136
p1391
tp1392
Rp1393
(dp1394
g8
Nsg9
I00
sbS'Izhikevich2004_SpikingNeurons_thresholdVariability'
p1395
sg1
(g2
g3
VBIOMD0000000137
p1396
tp1397
Rp1398
(dp1399
g8
Nsg9
I00
sbS'Sedaghat2002_InsulinSignalling_noFeedback'
p1400
sg1
(g2
g3
VBIOMD0000000134
p1401
tp1402
Rp1403
(dp1404
g8
Nsg9
I00
sbS'Izhikevich2004_SpikingNeurons_SpikeLatency'
p1405
sg1
(g2
g3
VBIOMD0000000135
p1406
tp1407
Rp1408
(dp1409
g8
Nsg9
I00
sbS'Izhikevich2004_SpikingNeurons_subthresholdOscillations'
p1410
sg1
(g2
g3
VBIOMD0000000033
p1411
tp1412
Rp1413
(dp1414
g8
Nsg9
I00
sbS'Brown2004_NGF_EGF_signaling'
p1415
sg1
(g2
g3
VBIOMD0000000032
p1416
tp1417
Rp1418
(dp1419
g8
Nsg9
I00
sbS'Kofahl2004_PheromonePathway'
p1420
sg1
(g2
g3
VBIOMD0000000138
p1421
tp1422
Rp1423
(dp1424
g8
Nsg9
I00
sbS'Tabak2007_dopamine'
p1425
sg1
(g2
g3
VBIOMD0000000139
p1426
tp1427
Rp1428
(dp1429
g8
Nsg9
I00
sbS'Hoffmann2002_KnockOut_IkBNFkB_Signaling'
p1430
sg1
(g2
g3
VBIOMD0000000037
p1431
tp1432
Rp1433
(dp1434
g8
Nsg9
I00
sbS'Marwan_Genetics_2003'
p1435
sg1
(g2
g3
VBIOMD0000000036
p1436
tp1437
Rp1438
(dp1439
g8
Nsg9
I00
sbS'Tyson1999_CircClock'
p1440
sg1
(g2
g3
VBIOMD0000000035
p1441
tp1442
Rp1443
(dp1444
g8
Nsg9
I00
sbS'Vilar2002_Oscillator'
p1445
sg1
(g2
g3
VBIOMD0000000034
p1446
tp1447
Rp1448
(dp1449
g8
Nsg9
I00
sbS'Smolen2004_CircClock'
p1450
sg1
(g2
g3
VBIOMD0000000492
p1451
tp1452
Rp1453
(dp1454
g8
Nsg9
I00
sbS'Pathak2013 - MAPK activation in response to various biotic stresses'
p1455
sg1
(g2
g3
VBIOMD0000000248
p1456
tp1457
Rp1458
(dp1459
g8
Nsg9
I00
sbS'Lai2007_O2_Transport_Metabolism'
p1460
sg1
(g2
g3
VBIOMD0000000249
p1461
tp1462
Rp1463
(dp1464
g8
Nsg9
I00
sbS'Restif2006_Whooping_Cough'
p1465
sg1
(g2
g3
VBIOMD0000000497
p1466
tp1467
Rp1468
(dp1469
g8
Nsg9
I00
sbS'Stanford2013 - Kinetic model of yeast metabolic network (regulation)'
p1470
sg1
(g2
g3
VBIOMD0000000496
p1471
tp1472
Rp1473
(dp1474
g8
Nsg9
I00
sbS'Stanford2013 - Kinetic model of yeast metabolic network (standard)'
p1475
sg1
(g2
g3
VBIOMD0000000499
p1476
tp1477
Rp1478
(dp1479
g8
Nsg9
I00
sbS'Vizan2013 - TGF pathway long term signaling'
p1480
sg1
(g2
g3
VBIOMD0000000398
p1481
tp1482
Rp1483
(dp1484
g8
Nsg9
I00
sbS'Sivakumar2011_NeuralStemCellDifferentiation_Crosstalk'
p1485
sg1
(g2
g3
VBIOMD0000000399
p1486
tp1487
Rp1488
(dp1489
g8
Nsg9
I00
sbS'Jenkinson2011_EGF_MAPK'
p1490
sg1
(g2
g3
VBIOMD0000000396
p1491
tp1492
Rp1493
(dp1494
g8
Nsg9
I00
sbS'Sivakumar2011_NotchSignalingPathway'
p1495
sg1
(g2
g3
VBIOMD0000000397
p1496
tp1497
Rp1498
(dp1499
g8
Nsg9
I00
sbS'Sivakumar2011_WntSignalingPathway'
p1500
sg1
(g2
g3
VBIOMD0000000394
p1501
tp1502
Rp1503
(dp1504
g8
Nsg9
I00
sbS'Sivakumar2011_EGFReceptorSignalingPathway'
p1505
sg1
(g2
g3
VBIOMD0000000395
p1506
tp1507
Rp1508
(dp1509
g8
Nsg9
I00
sbS'Sivakumar2011_HedgehogSignalingPathway'
p1510
sg1
(g2
g3
VBIOMD0000000392
p1511
tp1512
Rp1513
(dp1514
g8
Nsg9
I00
sbS'Arnold2011_Laisk2006_CalvinCycle_Starch_Sucrose'
p1515
sg1
(g2
g3
VBIOMD0000000393
p1516
tp1517
Rp1518
(dp1519
g8
Nsg9
I00
sbS'Arnold2011_Zhu2007_CalvinCycle_Starch_Sucrose_Photorespiration'
p1520
sg1
(g2
g3
VBIOMD0000000390
p1521
tp1522
Rp1523
(dp1524
g8
Nsg9
I00
sbS'Arnold2011_Giersch1990_CalvinCycle'
p1525
sg1
(g2
g3
VBIOMD0000000391
p1526
tp1527
Rp1528
(dp1529
g8
Nsg9
I00
sbS'Arnold2011_Poolman2000_CalvinCycle_Starch'
p1530
sg1
(g2
g3
VBIOMD0000000247
p1531
tp1532
Rp1533
(dp1534
g8
Nsg9
I00
sbS'Ralser2007_Carbohydrate_Rerouting_ROS'
p1535
sg1
(g2
g3
VBIOMD0000000147
p1536
tp1537
Rp1538
(dp1539
g8
Nsg9
I00
sbS'ODea2007_IkappaB'
p1540
sg1
(g2
g3
VBIOMD0000000146
p1541
tp1542
Rp1543
(dp1544
g8
Nsg9
I00
sbS'Hatakeyama2003_MAPK'
p1545
sg1
(g2
g3
VBIOMD0000000145
p1546
tp1547
Rp1548
(dp1549
g8
Nsg9
I00
sbS'Wang2007_ATP_induced_Ca_Oscillation'
p1550
sg1
(g2
g3
VBIOMD0000000144
p1551
tp1552
Rp1553
(dp1554
g8
Nsg9
I00
sbS'Calzone2007_CellCycle'
p1555
sg1
(g2
g3
VBIOMD0000000143
p1556
tp1557
Rp1558
(dp1559
g8
Nsg9
I00
sbS'Olsen2003_neutrophil_oscillatory_metabolism'
p1560
sg1
(g2
g3
VBIOMD0000000142
p1561
tp1562
Rp1563
(dp1564
g8
Nsg9
I00
sbS'Izhikevich2004_SpikingNeurons_Class2Excitable'
p1565
sg1
(g2
g3
VBIOMD0000000141
p1566
tp1567
Rp1568
(dp1569
g8
Nsg9
I00
sbS'Izhikevich2004_SpikingNeurons_Class1Excitable'
p1570
sg1
(g2
g3
VBIOMD0000000140
p1571
tp1572
Rp1573
(dp1574
g8
Nsg9
I00
sbS'Hoffmann2002_WT_IkBNFkB_Signaling'
p1575
sg1
(g2
g3
VBIOMD0000000149
p1576
tp1577
Rp1578
(dp1579
g8
Nsg9
I00
sbS'Kim2007 - Crosstalk between Wnt and ERK pathways'
p1580
sg1
(g2
g3
VBIOMD0000000148
p1581
tp1582
Rp1583
(dp1584
g8
Nsg9
I00
sbS'Komarova2003_BoneRemodeling'
p1585
sg1
(g2
g3
VBIOMD0000000406
p1586
tp1587
Rp1588
(dp1589
g8
Nsg9
I00
sbS'Moriya2011_CellCycle_FissionYeast'
p1590
sg1
(g2
g3
VBIOMD0000000407
p1591
tp1592
Rp1593
(dp1594
g8
Nsg9
I00
sbS'Schliemann2011_TNF_ProAntiApoptosis'
p1595
sg1
(g2
g3
VBIOMD0000000404
p1596
tp1597
Rp1598
(dp1599
g8
Nsg9
I00
sbS'Bray1993_chemotaxis'
p1600
sg1
(g2
g3
VBIOMD0000000405
p1601
tp1602
Rp1603
(dp1604
g8
Nsg9
I00
sbS'Cookson2011_EnzymaticQueueingCoupling'
p1605
sg1
(g2
g3
VBIOMD0000000402
p1606
tp1607
Rp1608
(dp1609
g8
Nsg9
I00
sbS'Ayati2010_BoneRemodelingDynamics_WithTumour'
p1610
sg1
(g2
g3
VBIOMD0000000403
p1611
tp1612
Rp1613
(dp1614
g8
Nsg9
I00
sbS'Ayati2010_BoneRemodelingDynamics_WithTumour+DrugTreatment'
p1615
sg1
(g2
g3
VBIOMD0000000400
p1616
tp1617
Rp1618
(dp1619
g8
Nsg9
I00
sbS'Cooling2007_IP3transients_CardiacMyocyte'
p1620
sg1
(g2
g3
VBIOMD0000000401
p1621
tp1622
Rp1623
(dp1624
g8
Nsg9
I00
sbS'Ayati2010_BoneRemodelingDynamics_NormalCondition'
p1625
sg1
(g2
g3
VBIOMD0000000408
p1626
tp1627
Rp1628
(dp1629
g8
Nsg9
I00
sbS'Hettling2011_CreatineKinase'
p1630
sg1
(g2
g3
VBIOMD0000000409
p1631
tp1632
Rp1633
(dp1634
g8
Nsg9
I00
sbS'Queralt2006_MitoticExit_Cdc55DownregulationBySeparase'
p1635
sg1
(g2
g3
VBIOMD0000000363
p1636
tp1637
Rp1638
(dp1639
g8
Nsg9
I00
sbS'Lee2010_ThrombinActivation_OneForm_minimal'
p1640
sg1
(g2
g3
VBIOMD0000000362
p1641
tp1642
Rp1643
(dp1644
g8
Nsg9
I00
sbS'Butenas2004_BloodCoagulation'
p1645
sg1
(g2
g3
VBIOMD0000000361
p1646
tp1647
Rp1648
(dp1649
g8
Nsg9
I00
sbS'Panteleev2002_TFPImechanism_schmema1'
p1650
sg1
(g2
g3
VBIOMD0000000360
p1651
tp1652
Rp1653
(dp1654
g8
Nsg9
I00
sbS'Panteleev2002_TFPImechanism_schmema2'
p1655
sg1
(g2
g3
VBIOMD0000000367
p1656
tp1657
Rp1658
(dp1659
g8
Nsg9
I00
sbS'Mueller2008_ThrombinGeneration_minimal'
p1660
sg1
(g2
g3
VBIOMD0000000366
p1661
tp1662
Rp1663
(dp1664
g8
Nsg9
I00
sbS'Orfao2008_ThrombinGeneration_AmidolyticActivity'
p1665
sg1
(g2
g3
VBIOMD0000000365
p1666
tp1667
Rp1668
(dp1669
g8
Nsg9
I00
sbS'Hockin1999_BloodCoagulation_VaInactivation'
p1670
sg1
(g2
g3
VBIOMD0000000364
p1671
tp1672
Rp1673
(dp1674
g8
Nsg9
I00
sbS'Lee2010_ThrombinActivation_OneForm'
p1675
sg1
(g2
g3
VBIOMD0000000244
p1676
tp1677
Rp1678
(dp1679
g8
Nsg9
I00
sbS'Kotte2010_Ecoli_Metabolic_Adaption'
p1680
sg1
(g2
g3
VBIOMD0000000245
p1681
tp1682
Rp1683
(dp1684
g8
Nsg9
I00
sbS'Lei2001_Yeast_Aerobic_Metabolism'
p1685
sg1
(g2
g3
VBIOMD0000000369
p1686
tp1687
Rp1688
(dp1689
g8
Nsg9
I00
sbS'Beltrami1995_ThrombinGeneration_D'
p1690
sg1
(g2
g3
VBIOMD0000000368
p1691
tp1692
Rp1693
(dp1694
g8
Nsg9
I00
sbS'Beltrami1995_ThrombinGeneration_C'
p1695
sg1
(g2
g3
VBIOMD0000000240
p1696
tp1697
Rp1698
(dp1699
g8
Nsg9
I00
sbS'Veening2008_DegU_Regulation'
p1700
sg1
(g2
g3
VBIOMD0000000241
p1701
tp1702
Rp1703
(dp1704
g8
Nsg9
I00
sbS'Shi1993_Caffeine_pressor_tolerance'
p1705
sg1
(g2
g3
VBIOMD0000000242
p1706
tp1707
Rp1708
(dp1709
g8
Nsg9
I00
sbS'Bai2003_G1phaseRegulation'
p1710
sg1
(g2
g3
VBIOMD0000000243
p1711
tp1712
Rp1713
(dp1714
g8
Nsg9
I00
sbS'Neumann2010_CD95Stimulation_NFkB_Apoptosis'
p1715
sg1
(g2
g3
VBIOMD0000000383
p1716
tp1717
Rp1718
(dp1719
g8
Nsg9
I00
sbS'Arnold2011_Farquhar1980_RuBisCO-CalvinCycle'
p1720
sg1
(g2
g3
VBIOMD0000000382
p1721
tp1722
Rp1723
(dp1724
g8
Nsg9
I00
sbS'Sturis1991_InsulinGlucoseModel_UltradianOscillation'
p1725
sg1
(g2
g3
VBIOMD0000000222
p1726
tp1727
Rp1728
(dp1729
g8
Nsg9
I00
sbS'Singh2006_TCA_Ecoli_glucose'
p1730
sg1
(g2
g3
VBIOMD0000000223
p1731
tp1732
Rp1733
(dp1734
g8
Nsg9
I00
sbS'Borisov2009_EGF_Insulin_Crosstalk'
p1735
sg1
(g2
g3
VBIOMD0000000561
p1736
tp1737
Rp1738
(dp1739
g8
Nsg9
I00
sbS'Martins2013 - True and apparent inhibition of amyloid fribril formation'
p1740
sg1
(g2
g3
VBIOMD0000000560
p1741
tp1742
Rp1743
(dp1744
g8
Nsg9
I00
sbS'Hui2014 - Age-related changes in articular cartilage'
p1745
sg1
(g2
g3
VBIOMD0000000520
p1746
tp1747
Rp1748
(dp1749
g8
Nsg9
I00
sbS'Smallbone2013 - Colon Crypt cycle - Version 0'
p1750
sg1
(g2
g3
VBIOMD0000000190
p1751
tp1752
Rp1753
(dp1754
g8
Nsg9
I00
sbS'Rodriguez-Caso2006_Polyamine_Metabolism'
p1755
sg1
(g2
g3
VBIOMD0000000191
p1756
tp1757
Rp1758
(dp1759
g8
Nsg9
I00
sbS'Monta\xc3\xb1ez2008_Arginine_catabolism'
p1760
sg1
(g2
g3
VBIOMD0000000192
p1761
tp1762
Rp1763
(dp1764
g8
Nsg9
I00
sbS'G\xc3\xb6rlich2003_RanGTP_gradient'
p1765
sg1
(g2
g3
VBIOMD0000000193
p1766
tp1767
Rp1768
(dp1769
g8
Nsg9
I00
sbS'Ibrahim2008_MCC_assembly_model_KDM'
p1770
sg1
(g2
g3
VBIOMD0000000194
p1771
tp1772
Rp1773
(dp1774
g8
Nsg9
I00
sbS'Ibrahim2008_Cdc20_Sequestring_Template_Model'
p1775
sg1
(g2
g3
VBIOMD0000000195
p1776
tp1777
Rp1778
(dp1779
g8
Nsg9
I00
sbS'Tyson2001_Cell_Cycle_Regulation'
p1780
sg1
(g2
g3
VBIOMD0000000196
p1781
tp1782
Rp1783
(dp1784
g8
Nsg9
I00
sbS'Srividhya2006_CellCycle'
p1785
sg1
(g2
g3
VBIOMD0000000197
p1786
tp1787
Rp1788
(dp1789
g8
Nsg9
I00
sbS'Bartholome2007_MDCKII'
p1790
sg1
(g2
g3
VBIOMD0000000198
p1791
tp1792
Rp1793
(dp1794
g8
Nsg9
I00
sbS'Stone1996_NOsGC'
p1795
sg1
(g2
g3
VBIOMD0000000199
p1796
tp1797
Rp1798
(dp1799
g8
Nsg9
I00
sbS'Santolini2001_nNOS_Mechanism_Regulation'
p1800
sg1
(g2
g3
VBIOMD0000000299
p1801
tp1802
Rp1803
(dp1804
g8
Nsg9
I00
sbS'Leloup1999_CircadianRhythms_Neurospora'
p1805
sg1
(g2
g3
VBIOMD0000000298
p1806
tp1807
Rp1808
(dp1809
g8
Nsg9
I00
sbS'Leloup1999_CircadianRhythms_Drosophila'
p1810
sg1
(g2
g3
VBIOMD0000000293
p1811
tp1812
Rp1813
(dp1814
g8
Nsg9
I00
sbS'Proctor2010_UCHL1_ProteinAggregation'
p1815
sg1
(g2
g3
VBIOMD0000000292
p1816
tp1817
Rp1818
(dp1819
g8
Nsg9
I00
sbS'Rovers1995_Photsynthetic_Oscillations'
p1820
sg1
(g2
g3
VBIOMD0000000291
p1821
tp1822
Rp1823
(dp1824
g8
Nsg9
I00
sbS'Nikolaev2005_AlbuminBilirubinAdsorption'
p1825
sg1
(g2
g3
VBIOMD0000000290
p1826
tp1827
Rp1828
(dp1829
g8
Nsg9
I00
sbS'Alexander2010_Tcell_Regulation_Sys2'
p1830
sg1
(g2
g3
VBIOMD0000000297
p1831
tp1832
Rp1833
(dp1834
g8
Nsg9
I00
sbS'Ciliberto2003_Morphogenesis_Checkpoint'
p1835
sg1
(g2
g3
VBIOMD0000000296
p1836
tp1837
Rp1838
(dp1839
g8
Nsg9
I00
sbS'Balagadd\xc3\xa92008_E_coli_Predator_Prey'
p1840
sg1
(g2
g3
VBIOMD0000000295
p1841
tp1842
Rp1843
(dp1844
g8
Nsg9
I00
sbS'Akman2008_Circadian_Clock_Model1'
p1845
sg1
(g2
g3
VBIOMD0000000294
p1846
tp1847
Rp1848
(dp1849
g8
Nsg9
I00
sbS'Restif2007_Vaccination_Invasion'
p1850
sg1
(g2
g3
VBIOMD0000000109
p1851
tp1852
Rp1853
(dp1854
g8
Nsg9
I00
sbS'Haberichter2007_cellcycle'
p1855
sg1
(g2
g3
VBIOMD0000000108
p1856
tp1857
Rp1858
(dp1859
g8
Nsg9
I00
sbS'Kowald2006_SOD'
p1860
sg1
(g2
g3
VBIOMD0000000103
p1861
tp1862
Rp1863
(dp1864
g8
Nsg9
I00
sbS'Legewie2006_apoptosis_NC'
p1865
sg1
(g2
g3
VBIOMD0000000102
p1866
tp1867
Rp1868
(dp1869
g8
Nsg9
I00
sbS'Legewie2006_apoptosis_WT'
p1870
sg1
(g2
g3
VBIOMD0000000101
p1871
tp1872
Rp1873
(dp1874
g8
Nsg9
I00
sbS'Vilar2006_TGFbeta'
p1875
sg1
(g2
g3
VBIOMD0000000100
p1876
tp1877
Rp1878
(dp1879
g8
Nsg9
I00
sbS'Rozi2003_GlycogenPhosphorylase_Activation'
p1880
sg1
(g2
g3
VBIOMD0000000107
p1881
tp1882
Rp1883
(dp1884
g8
Nsg9
I00
sbS'Novak1993_M_phase_control'
p1885
sg1
(g2
g3
VBIOMD0000000106
p1886
tp1887
Rp1888
(dp1889
g8
Nsg9
I00
sbS'Yang2007_ArachidonicAcid'
p1890
sg1
(g2
g3
VBIOMD0000000105
p1891
tp1892
Rp1893
(dp1894
g8
Nsg9
I00
sbS'Proctor2007_ubiquitine'
p1895
sg1
(g2
g3
VBIOMD0000000104
p1896
tp1897
Rp1898
(dp1899
g8
Nsg9
I00
sbS'Klipp2002_MetabolicOptimization_linearPathway(n=2)'
p1900
sg1
(g2
g3
VBIOMD0000000064
p1901
tp1902
Rp1903
(dp1904
g8
Nsg9
I00
sbS'Teusink2000_Glycolysis'
p1905
sg1
(g2
g3
VBIOMD0000000065
p1906
tp1907
Rp1908
(dp1909
g8
Nsg9
I00
sbS'Yildirim2003_Lac_Operon'
p1910
sg1
(g2
g3
VBIOMD0000000066
p1911
tp1912
Rp1913
(dp1914
g8
Nsg9
I00
sbS'Chassagnole2001_Threonine Synthesis'
p1915
sg1
(g2
g3
VBIOMD0000000067
p1916
tp1917
Rp1918
(dp1919
g8
Nsg9
I00
sbS'Fung2005_Metabolic_Oscillator'
p1920
sg1
(g2
g3
VBIOMD0000000060
p1921
tp1922
Rp1923
(dp1924
g8
Nsg9
I00
sbS'Keizer1996_Ryanodine_receptor_adaptation'
p1925
sg1
(g2
g3
VBIOMD0000000061
p1926
tp1927
Rp1928
(dp1929
g8
Nsg9
I00
sbS'Hynne2001_Glycolysis'
p1930
sg1
(g2
g3
VBIOMD0000000062
p1931
tp1932
Rp1933
(dp1934
g8
Nsg9
I00
sbS'Bhartiya2003_Tryptophan_operon'
p1935
sg1
(g2
g3
VBIOMD0000000063
p1936
tp1937
Rp1938
(dp1939
g8
Nsg9
I00
sbS'Galazzo1990_FermentationPathwayKinetics'
p1940
sg1
(g2
g3
VBIOMD0000000068
p1941
tp1942
Rp1943
(dp1944
g8
Nsg9
I00
sbS'Curien2003_MetThr_synthesis'
p1945
sg1
(g2
g3
VBIOMD0000000069
p1946
tp1947
Rp1948
(dp1949
g8
Nsg9
I00
sbS'Fuss2006_MitoticActivation'
p1950
sg1
(g2
g3
VBIOMD0000000550
p1951
tp1952
Rp1953
(dp1954
g8
Nsg9
I00
sbS'Baker2013 - Cytokine Mediated Inflammation in Rheumatoid Arthritis'
p1955
sg1
(g2
g3
VBIOMD0000000551
p1956
tp1957
Rp1958
(dp1959
g8
Nsg9
I00
sbS'Das2010 - Effect of a gamma-secretase inhibitor on Amyloid-beta dynamics'
p1960
sg1
(g2
g3
VBIOMD0000000088
p1961
tp1962
Rp1963
(dp1964
g8
Nsg9
I00
sbS'Maeda2006_MyosinPhosphorylation'
p1965
sg1
(g2
g3
VBIOMD0000000200
p1966
tp1967
Rp1968
(dp1969
g8
Nsg9
I00
sbS'Bray1995_chemotaxis_receptorlinkedcomplex'
p1970
sg1
(g2
g3
VBIOMD0000000201
p1971
tp1972
Rp1973
(dp1974
g8
Nsg9
I00
sbS'Goldbeter2008_Somite_Segmentation_Clock_Notch_Wnt_FGF'
p1975
sg1
(g2
g3
VBIOMD0000000202
p1976
tp1977
Rp1978
(dp1979
g8
Nsg9
I00
sbS'ChenXF2008_CICR'
p1980
sg1
(g2
g3
VBIOMD0000000203
p1981
tp1982
Rp1983
(dp1984
g8
Nsg9
I00
sbS'Chickarmane2006 - Stem cell switch reversible'
p1985
sg1
(g2
g3
VBIOMD0000000204
p1986
tp1987
Rp1988
(dp1989
g8
Nsg9
I00
sbS'Chickarmane2006 - Stem cell switch irreversible'
p1990
sg1
(g2
g3
VBIOMD0000000205
p1991
tp1992
Rp1993
(dp1994
g8
Nsg9
I00
sbS'Ung2008_EGFR_Endocytosis'
p1995
sg1
(g2
g3
VBIOMD0000000206
p1996
tp1997
Rp1998
(dp1999
g8
Nsg9
I00
sbS'Wolf2000_Glycolytic_Oscillations'
p2000
sg1
(g2
g3
VBIOMD0000000207
p2001
tp2002
Rp2003
(dp2004
g8
Nsg9
I00
sbS'Romond1999_CellCycle'
p2005
sg1
(g2
g3
VBIOMD0000000208
p2006
tp2007
Rp2008
(dp2009
g8
Nsg9
I00
sbS'Deineko2003_CellCycle'
p2010
sg1
(g2
g3
VBIOMD0000000209
p2011
tp2012
Rp2013
(dp2014
g8
Nsg9
I00
sbS'Chickarmane2008 - Stem cell lineage determination'
p2015
sg1
(g2
g3
VBIOMD0000000536
p2016
tp2017
Rp2018
(dp2019
g8
Nsg9
I00
sbS'Dwivedi2014 - Crohns IL6 Disease model - sgp130 activity'
p2020
sg1
(g2
g3
VBIOMD0000000537
p2021
tp2022
Rp2023
(dp2024
g8
Nsg9
I00
sbS'Dwivedi2014 - Crohns IL6 Disease model - Anti-IL6R Antibody'
p2025
sg1
(g2
g3
VBIOMD0000000534
p2026
tp2027
Rp2028
(dp2029
g8
Nsg9
I00
sbS'Dwivedi2014 - Healthy Volunteer IL6 Model'
p2030
sg1
(g2
g3
VBIOMD0000000535
p2031
tp2032
Rp2033
(dp2034
g8
Nsg9
I00
sbS'Dwivedi2014 - Crohns IL6 Disease model - Anti-IL6 Antibody'
p2035
sg1
(g2
g3
VBIOMD0000000532
p2036
tp2037
Rp2038
(dp2039
g8
Nsg9
I00
sbS'Vazquez2014 - Chemical inhibition from amyloid protein aggregation kinetics'
p2040
sg1
(g2
g3
VBIOMD0000000533
p2041
tp2042
Rp2043
(dp2044
g8
Nsg9
I00
sbS'Steckmann2012 - Amyloid beta-protein fibrillogenesis (kinetics of secondary structure conversion)'
p2045
sg1
(g2
g3
VBIOMD0000000439
p2046
tp2047
Rp2048
(dp2049
g8
Nsg9
I00
sbS'Smith2009 - RGS mediated GTP hydrolysis'
p2050
sg1
(g2
g3
VBIOMD0000000438
p2051
tp2052
Rp2053
(dp2054
g8
Nsg9
I00
sbS'Saeidi2012 - Quorum sensing device that produces GFP'
p2055
sg1
(g2
g3
VBIOMD0000000437
p2056
tp2057
Rp2058
(dp2059
g8
Nsg9
I00
sbS'Tseng2012 - Circadian clock of N.crassa'
p2060
sg1
(g2
g3
VBIOMD0000000436
p2061
tp2062
Rp2063
(dp2064
g8
Nsg9
I00
sbS'Gupta2009 - Eicosanoid Metabolism'
p2065
sg1
(g2
g3
VBIOMD0000000435
p2066
tp2067
Rp2068
(dp2069
g8
Nsg9
I00
sbS'deBack2012 - Lineage Specification in Pancreas Development'
p2070
sg1
(g2
g3
VBIOMD0000000434
p2071
tp2072
Rp2073
(dp2074
g8
Nsg9
I00
sbS'McAuley2012 - Whole-body Cholesterol Metabolism'
p2075
sg1
(g2
g3
VBIOMD0000000433
p2076
tp2077
Rp2078
(dp2079
g8
Nsg9
I00
sbS'Sarma2012 - Interaction topologies of MAPK cascade (M4_K2_QSS_PSEQ)'
p2080
sg1
(g2
g3
VBIOMD0000000432
p2081
tp2082
Rp2083
(dp2084
g8
Nsg9
I00
sbS'Sarma2012 - Interaction topologies of MAPK cascade (M4_K2_QSS_USEQ)'
p2085
sg1
(g2
g3
VBIOMD0000000431
p2086
tp2087
Rp2088
(dp2089
g8
Nsg9
I00
sbS'Sarma2012 - Interaction topologies of MAPK cascade (M4_K2_PSEQ)'
p2090
sg1
(g2
g3
VBIOMD0000000430
p2091
tp2092
Rp2093
(dp2094
g8
Nsg9
I00
sbS'Sarma2012 - Interaction topologies of MAPK cascade (M4_K2_USEQ)'
p2095
sg1
(g2
g3
VBIOMD0000000082
p2096
tp2097
Rp2098
(dp2099
g8
Nsg9
I00
sbS'Thomsen1988_AdenylateCyclase_Inhibition'
p2100
sg1
(g2
g3
VBIOMD0000000083
p2101
tp2102
Rp2103
(dp2104
g8
Nsg9
I00
sbS'Leloup2003_CircClock_LD_REV-ERBalpha'
p2105
sg1
(g2
g3
VBIOMD0000000448
p2106
tp2107
Rp2108
(dp2109
g8
Nsg9
I00
sbS'Br\xc3\xa4nnmark2013 - Insulin signalling in human adipocytes (normal condition)'
p2110
sg1
(g2
g3
VBIOMD0000000449
p2111
tp2112
Rp2113
(dp2114
g8
Nsg9
I00
sbS'Br\xc3\xa4nnmark2013 - Insulin signalling in human adipocytes (diabetic condition)'
p2115
sg1
(g2
g3
VBIOMD0000000338
p2116
tp2117
Rp2118
(dp2119
g8
Nsg9
I00
sbS'Wajima2009_BloodCoagulation_aPTTtest'
p2120
sg1
(g2
g3
VBIOMD0000000339
p2121
tp2122
Rp2123
(dp2124
g8
Nsg9
I00
sbS'Wajima2009_BloodCoagulation_PTtest'
p2125
sg1
(g2
g3
VBIOMD0000000334
p2126
tp2127
Rp2128
(dp2129
g8
Nsg9
I00
sbS'Bungay2003_Thrombin_Generation'
p2130
sg1
(g2
g3
VBIOMD0000000335
p2131
tp2132
Rp2133
(dp2134
g8
Nsg9
I00
sbS'Hockin2002_BloodCoagulation'
p2135
sg1
(g2
g3
VBIOMD0000000336
p2136
tp2137
Rp2138
(dp2139
g8
Nsg9
I00
sbS'Jones1994_BloodCoagulation'
p2140
sg1
(g2
g3
VBIOMD0000000337
p2141
tp2142
Rp2143
(dp2144
g8
Nsg9
I00
sbS'Pfeiffer2001_ATP-ProducingPathways_CooperationCompetition'
p2145
sg1
(g2
g3
VBIOMD0000000446
p2146
tp2147
Rp2148
(dp2149
g8
Nsg9
I00
sbS'Erguler2013 - Unfolded protein stress response'
p2150
sg1
(g2
g3
VBIOMD0000000331
p2151
tp2152
Rp2153
(dp2154
g8
Nsg9
I00
sbS'Larsen2004_CalciumSpiking_EnzymeBinding'
p2155
sg1
(g2
g3
VBIOMD0000000332
p2156
tp2157
Rp2158
(dp2159
g8
Nsg9
I00
sbS'Bungay2006_Plasma'
p2160
sg1
(g2
g3
VBIOMD0000000333
p2161
tp2162
Rp2163
(dp2164
g8
Nsg9
I00
sbS'Bungay2006_FollicularFluid'
p2165
sg1
(g2
g3
VBIOMD0000000327
p2166
tp2167
Rp2168
(dp2169
g8
Nsg9
I00
sbS'Whitcomb2004_Bicarbonate_Pancreas'
p2170
sg1
(g2
g3
VBIOMD0000000326
p2171
tp2172
Rp2173
(dp2174
g8
Nsg9
I00
sbS'DellOrco2009_phototransduction'
p2175
sg1
(g2
g3
VBIOMD0000000325
p2176
tp2177
Rp2178
(dp2179
g8
Nsg9
I00
sbS'Palini2011_Minimal_2_Feedback_Model'
p2180
sg1
(g2
g3
VBIOMD0000000028
p2181
tp2182
Rp2183
(dp2184
g8
Nsg9
I00
sbS'Markevich2004_MAPK_phosphoRandomElementary'
p2185
sg1
(g2
g3
VBIOMD0000000029
p2186
tp2187
Rp2188
(dp2189
g8
Nsg9
I00
sbS'Markevich2004_MAPK_phosphoRandomMM'
p2190
sg1
(g2
g3
VBIOMD0000000324
p2191
tp2192
Rp2193
(dp2194
g8
Nsg9
I00
sbS'Morris1981_MuscleFibre_Voltage_full'
p2195
sg1
(g2
g3
VBIOMD0000000020
p2196
tp2197
Rp2198
(dp2199
g8
Nsg9
I00
sbS'Hodgkin-Huxley1952 squid-axon'
p2200
sg1
(g2
g3
VBIOMD0000000021
p2201
tp2202
Rp2203
(dp2204
g8
Nsg9
I00
sbS'Leloup1999_CircClock'
p2205
sg1
(g2
g3
VBIOMD0000000022
p2206
tp2207
Rp2208
(dp2209
g8
Nsg9
I00
sbS'Ueda2001_CircClock'
p2210
sg1
(g2
g3
VBIOMD0000000023
p2211
tp2212
Rp2213
(dp2214
g8
Nsg9
I00
sbS'Rohwer2001_Sucrose'
p2215
sg1
(g2
g3
VBIOMD0000000024
p2216
tp2217
Rp2218
(dp2219
g8
Nsg9
I00
sbS'Scheper1999_CircClock'
p2220
sg1
(g2
g3
VBIOMD0000000025
p2221
tp2222
Rp2223
(dp2224
g8
Nsg9
I00
sbS'Smolen2002_CircClock'
p2225
sg1
(g2
g3
VBIOMD0000000026
p2226
tp2227
Rp2228
(dp2229
g8
Nsg9
I00
sbS'Markevich2004_MAPK_orderedElementary'
p2230
sg1
(g2
g3
VBIOMD0000000027
p2231
tp2232
Rp2233
(dp2234
g8
Nsg9
I00
sbS'Markevich2004_MAPK_orderedMM'
p2235
sg1
(g2
g3
VBIOMD0000000321
p2236
tp2237
Rp2238
(dp2239
g8
Nsg9
I00
sbS'Grange2001 - L Dopa PK model'
p2240
sg1
(g2
g3
VBIOMD0000000320
p2241
tp2242
Rp2243
(dp2244
g8
Nsg9
I00
sbS'Grange2001 - PK interaction of L-dopa and benserazide'
p2245
sg1
(g2
g3
VBIOMD0000000491
p2246
tp2247
Rp2248
(dp2249
g8
Nsg9
I00
sbS'Pathak2013 - MAPK activation in response to various abiotic stresses'
p2250
sg1
(g2
g3
VBIOMD0000000151
p2251
tp2252
Rp2253
(dp2254
g8
Nsg9
I00
sbS'Singh2006_IL6_Signal_Transduction'
p2255
sg1
(g2
g3
VBIOMD0000000154
p2256
tp2257
Rp2258
(dp2259
g8
Nsg9
I00
sbS'Zatorsky2006_p53_Model3'
p2260
sg1
(g2
g3
VBIOMD0000000155
p2261
tp2262
Rp2263
(dp2264
g8
Nsg9
I00
sbS'Zatorsky2006_p53_Model6'
p2265
sg1
(g2
g3
VBIOMD0000000156
p2266
tp2267
Rp2268
(dp2269
g8
Nsg9
I00
sbS'Zatorsky2006_p53_Model5'
p2270
sg1
(g2
g3
VBIOMD0000000157
p2271
tp2272
Rp2273
(dp2274
g8
Nsg9
I00
sbS'Zatorsky2006_p53_Model4'
p2275
sg1
(g2
g3
VBIOMD0000000150
p2276
tp2277
Rp2278
(dp2279
g8
Nsg9
I00
sbS'Morris2002_CellCycle_CDK2Cyclin'
p2280
sg1
(g2
g3
VBIOMD0000000098
p2281
tp2282
Rp2283
(dp2284
g8
Nsg9
I00
sbS'Goldbeter1990_CalciumSpike_CICR'
p2285
sg1
(g2
g3
VBIOMD0000000152
p2286
tp2287
Rp2288
(dp2289
g8
Nsg9
I00
sbS'Fernandez2006_ModelA'
p2290
sg1
(g2
g3
VBIOMD0000000153
p2291
tp2292
Rp2293
(dp2294
g8
Nsg9
I00
sbS'Fernandez2006_ModelB'
p2295
sg1
(g2
g3
VBIOMD0000000095
p2296
tp2297
Rp2298
(dp2299
g8
Nsg9
I00
sbS'Zeilinger2006_PRR7-PRR9-Y'
p2300
sg1
(g2
g3
VBIOMD0000000094
p2301
tp2302
Rp2303
(dp2304
g8
Nsg9
I00
sbS'Yamada2003_JAK_STAT_SOCS1_knockout'
p2305
sg1
(g2
g3
VBIOMD0000000097
p2306
tp2307
Rp2308
(dp2309
g8
Nsg9
I00
sbS'Zeilinger2006_PRR7-PRR9light-Yprime'
p2310
sg1
(g2
g3
VBIOMD0000000096
p2311
tp2312
Rp2313
(dp2314
g8
Nsg9
I00
sbS'Zeilinger2006_PRR7-PRR9light-Y'
p2315
sg1
(g2
g3
VBIOMD0000000091
p2316
tp2317
Rp2318
(dp2319
g8
Nsg9
I00
sbS'Proctor2005 - Actions of chaperones and their role in ageing'
p2320
sg1
(g2
g3
VBIOMD0000000090
p2321
tp2322
Rp2323
(dp2324
g8
Nsg9
I00
sbS'Wolf2001_Respiratory_Oscillations'
p2325
sg1
(g2
g3
VBIOMD0000000093
p2326
tp2327
Rp2328
(dp2329
g8
Nsg9
I00
sbS'Yamada2003_JAK_STAT_pathway'
p2330
sg1
(g2
g3
VBIOMD0000000092
p2331
tp2332
Rp2333
(dp2334
g8
Nsg9
I00
sbS'Fuentes2005_ZymogenActivation'
p2335
sg1
(g2
g3
VBIOMD0000000473
p2336
tp2337
Rp2338
(dp2339
g8
Nsg9
I00
sbS'Smallbone2013 - Yeast metabolic model with modular rate law, merged with Pritchard 2002'
p2340
sg1
(g2
g3
VBIOMD0000000472
p2341
tp2342
Rp2343
(dp2344
g8
Nsg9
I00
sbS'Smallbone2013 - Yeast metabolic model with modular rate law'
p2345
sg1
(g2
g3
VBIOMD0000000471
p2346
tp2347
Rp2348
(dp2349
g8
Nsg9
I00
sbS'Smallbone2013 - Yeast metabolic model with linlog rate law'
p2350
sg1
(g2
g3
VBIOMD0000000470
p2351
tp2352
Rp2353
(dp2354
g8
Nsg9
I00
sbS'Smallbone2013 - E.coli metabolic model with modular rate law'
p2355
sg1
(g2
g3
VBIOMD0000000477
p2356
tp2357
Rp2358
(dp2359
g8
Nsg9
I00
sbS'Mol2013 - Immune Signal Transduction in Leishmaniasis'
p2360
sg1
(g2
g3
VBIOMD0000000476
p2361
tp2362
Rp2363
(dp2364
g8
Nsg9
I00
sbS'Adams2012 - Locke2006 Circadian Rhythm model refined with Input Signal Light Function'
p2365
sg1
(g2
g3
VBIOMD0000000475
p2366
tp2367
Rp2368
(dp2369
g8
Nsg9
I00
sbS'Amara2013 - PCNA ubiquitylation in the activation of PRR pathway'
p2370
sg1
(g2
g3
VBIOMD0000000474
p2371
tp2372
Rp2373
(dp2374
g8
Nsg9
I00
sbS'Smith2013 - Regulation of Insulin Signalling by Oxidative Stress'
p2375
sg1
(g2
g3
VBIOMD0000000558
p2376
tp2377
Rp2378
(dp2379
g8
Nsg9
I00
sbS"Cloutier2012 - Feedback motif for Parkinson's disease"
p2380
sg1
(g2
g3
VBIOMD0000000479
p2381
tp2382
Rp2383
(dp2384
g8
Nsg9
I00
sbS'Croft2013 - GPCR-RGS interaction that compartmentalizes RGS activity'
p2385
sg1
(g2
g3
VBIOMD0000000311
p2386
tp2387
Rp2388
(dp2389
g8
Nsg9
I00
sbS'Tyson2003_Mutual_Activation'
p2390
sg1
(g2
g3
VBIOMD0000000526
p2391
tp2392
Rp2393
(dp2394
g8
Nsg9
I00
sbS'Kallenberger2014 - CD95L induced apoptosis initiated by caspase-8, wild-type HeLa cells (cis/trans-cis/trans variant)'
p2395
sg1
(g2
g3
VBIOMD0000000488
p2396
tp2397
Rp2398
(dp2399
g8
Nsg9
I00
sbS"Proctor2013 - Effect of A\xce\xb2 immunisation in Alzheimer's disease"
p2400
sg1
(g2
g3
VBIOMD0000000489
p2401
tp2402
Rp2403
(dp2404
g8
Nsg9
I00
sbS'Sharp2013 - Lipopolysaccharide induced NFkB activation'
p2405
sg1
(g2
g3
VBIOMD0000000486
p2406
tp2407
Rp2408
(dp2409
g8
Nsg9
I00
sbS'Cao2013 - Application of ABSIS method in the reversible isomerization model'
p2410
sg1
(g2
g3
VBIOMD0000000487
p2411
tp2412
Rp2413
(dp2414
g8
Nsg9
I00
sbS'Cao2013 - Application of ABSIS in the the enzymatic futile cycle'
p2415
sg1
(g2
g3
VBIOMD0000000484
p2416
tp2417
Rp2418
(dp2419
g8
Nsg9
I00
sbS'Cao2013 - Application of ABSIS method in birth-death process'
p2420
sg1
(g2
g3
VBIOMD0000000485
p2421
tp2422
Rp2423
(dp2424
g8
Nsg9
I00
sbS'Cao2013 - Application of ABSIS method in the bistable Schl\xc3\xb6gl model'
p2425
sg1
(g2
g3
VBIOMD0000000482
p2426
tp2427
Rp2428
(dp2429
g8
Nsg9
I00
sbS'Noguchi2013 - Insulin dependent glucose metabolism'
p2430
sg1
(g2
g3
VBIOMD0000000483
p2431
tp2432
Rp2433
(dp2434
g8
Nsg9
I00
sbS'Cao2008 - Network of a toggle switch'
p2435
sg1
(g2
g3
VBIOMD0000000480
p2436
tp2437
Rp2438
(dp2439
g8
Nsg9
I00
sbS'Carbo2013 - Mucosal Immune Response during H.pylori Infection'
p2440
sg1
(g2
g3
VBIOMD0000000481
p2441
tp2442
Rp2443
(dp2444
g8
Nsg9
I00
sbS'St\xc3\xb6tzel2012 - Bovine estrous cycle, synchronization with prostaglandin F2\xce\xb1'
p2445
sg1
(g2
g3
VBIOMD0000000279
p2446
tp2447
Rp2448
(dp2449
g8
Nsg9
I00
sbS'Komarova2005_PTHaction_OsteoclastOsteoblastCoupling'
p2450
sg1
(g2
g3
VBIOMD0000000278
p2451
tp2452
Rp2453
(dp2454
g8
Nsg9
I00
sbS'Lemaire2004_BoneRemodeling_RANKRANKLOPGpathway'
p2455
sg1
(g2
g3
VBIOMD0000000372
p2456
tp2457
Rp2458
(dp2459
g8
Nsg9
I00
sbS'Tolic2000_InsulinGlucoseFeedback'
p2460
sg1
(g2
g3
VBIOMD0000000373
p2461
tp2462
Rp2463
(dp2464
g8
Nsg9
I00
sbS'Bertram2004_PancreaticBetaCell_modelB'
p2465
sg1
(g2
g3
VBIOMD0000000374
p2466
tp2467
Rp2468
(dp2469
g8
Nsg9
I00
sbS'Bertram1995_PancreaticBetaCell_CRAC'
p2470
sg1
(g2
g3
VBIOMD0000000251
p2471
tp2472
Rp2473
(dp2474
g8
Nsg9
I00
sbS'Nakakuki2010_CellFateDecision_Core'
p2475
sg1
(g2
g3
VBIOMD0000000376
p2476
tp2477
Rp2478
(dp2479
g8
Nsg9
I00
sbS'Bertram2007_IsletCell_Oscillations'
p2480
sg1
(g2
g3
VBIOMD0000000377
p2481
tp2482
Rp2483
(dp2484
g8
Nsg9
I00
sbS'Bertram2000_PancreaticBetaCells_Oscillations'
p2485
sg1
(g2
g3
VBIOMD0000000378
p2486
tp2487
Rp2488
(dp2489
g8
Nsg9
I00
sbS'Chay1997_CalciumConcentration'
p2490
sg1
(g2
g3
VBIOMD0000000379
p2491
tp2492
Rp2493
(dp2494
g8
Nsg9
I00
sbS'DallaMan2007_MealModel_GlucoseInsulinSystem'
p2495
sg1
(g2
g3
VBIOMD0000000273
p2496
tp2497
Rp2498
(dp2499
g8
Nsg9
I00
sbS'Pokhilko2010_CircClock'
p2500
sg1
(g2
g3
VBIOMD0000000272
p2501
tp2502
Rp2503
(dp2504
g8
Nsg9
I00
sbS'Becker2010_EpoR_AuxiliaryModel'
p2505
sg1
(g2
g3
VBIOMD0000000275
p2506
tp2507
Rp2508
(dp2509
g8
Nsg9
I00
sbS'Goldbeter2007_Somitogenesis_Switch'
p2510
sg1
(g2
g3
VBIOMD0000000274
p2511
tp2512
Rp2513
(dp2514
g8
Nsg9
I00
sbS'Rattanakul2003_BoneFormationModel'
p2515
sg1
(g2
g3
VBIOMD0000000277
p2516
tp2517
Rp2518
(dp2519
g8
Nsg9
I00
sbS'Shrestha2010_HyperCalcemia_PTHresponse'
p2520
sg1
(g2
g3
VBIOMD0000000276
p2521
tp2522
Rp2523
(dp2524
g8
Nsg9
I00
sbS'Shrestha2010_HypoCalcemia_PTHresponse'
p2525
sg1
(g2
g3
VBIOMD0000000509
p2526
tp2527
Rp2528
(dp2529
g8
Nsg9
I00
sbS'Barrack2014 - Calcium/cell cycle coupling - Rs dependent ATP release'
p2530
sg1
(g2
g3
VBIOMD0000000508
p2531
tp2532
Rp2533
(dp2534
g8
Nsg9
I00
sbS'Barrack2014 - Calcium/cell cycle coupling - Cyclin D dependent ATP release'
p2535
sg1
(g2
g3
VBIOMD0000000507
p2536
tp2537
Rp2538
(dp2539
g8
Nsg9
I00
sbS'Gardner2000 - genetic toggle switch in E.coli'
p2540
sg1
(g2
g3
VBIOMD0000000506
p2541
tp2542
Rp2543
(dp2544
g8
Nsg9
I00
sbS'vanEunen2013 - Network dynamics of fatty acid ?-oxidation (time-course model)'
p2545
sg1
(g2
g3
VBIOMD0000000505
p2546
tp2547
Rp2548
(dp2549
g8
Nsg9
I00
sbS'vanEunen2013 - Network dynamics of fatty acid ?-oxidation (steady-state model)'
p2550
sg1
(g2
g3
VBIOMD0000000504
p2551
tp2552
Rp2553
(dp2554
g8
Nsg9
I00
sbS'Proctor2013 - Cartilage breakdown, interventions to reduce collagen release'
p2555
sg1
(g2
g3
VBIOMD0000000503
p2556
tp2557
Rp2558
(dp2559
g8
Nsg9
I00
sbS'Messiha2013 - combined glycolysis and pentose phosphate pathway model'
p2560
sg1
(g2
g3
VBIOMD0000000502
p2561
tp2562
Rp2563
(dp2564
g8
Nsg9
I00
sbS'Messiha2013 - Pentose phosphate pathway model'
p2565
sg1
(g2
g3
VBIOMD0000000501
p2566
tp2567
Rp2568
(dp2569
g8
Nsg9
I00
sbS'Begitt2014 - STAT1 cooperative DNA binding - double GAS polymer model'
p2570
sg1
(g2
g3
VBIOMD0000000500
p2571
tp2572
Rp2573
(dp2574
g8
Nsg9
I00
sbS'Begitt2014 - STAT1 cooperative DNA binding - single GAS polymer model'
p2575
sg1
(g2
g3
VBIOMD0000000099
p2576
tp2577
Rp2578
(dp2579
g8
Nsg9
I00
sbS'Laub1998_SpontaneousOscillations'
p2580
sg1
(g2
g3
VBIOMD0000000323
p2581
tp2582
Rp2583
(dp2584
g8
Nsg9
I00
sbS'Kim2011_Oscillator_SimpleIII'
p2585
sg1
(g2
g3
VBIOMD0000000310
p2586
tp2587
Rp2588
(dp2589
g8
Nsg9
I00
sbS'Tyson2003_Mutual_Inhibition'
p2590
sg1
(g2
g3
VBIOMD0000000322
p2591
tp2592
Rp2593
(dp2594
g8
Nsg9
I00
sbS'Kim2011_Oscillator_SimpleI'
p2595
sg1
(g2
g3
VBIOMD0000000031
p2596
tp2597
Rp2598
(dp2599
g8
Nsg9
I00
sbS'Markevich2004_MAPK_orderedMM2kinases'
p2600
sg1
(g2
g3
VBIOMD0000000030
p2601
tp2602
Rp2603
(dp2604
g8
Nsg9
I00
sbS'Markevich2004_MAPK_AllRandomElementary'
p2605
sg1
(g2
g3
VBIOMD0000000288
p2606
tp2607
Rp2608
(dp2609
g8
Nsg9
I00
sbS'Wang2009 - PI3K Ras Crosstalk'
p2610
sg1
(g2
g3
VBIOMD0000000289
p2611
tp2612
Rp2613
(dp2614
g8
Nsg9
I00
sbS'Alexander2010_Tcell_Regulation_Sys1'
p2615
sg1
(g2
g3
VBIOMD0000000280
p2616
tp2617
Rp2618
(dp2619
g8
Nsg9
I00
sbS'Morris1981_MuscleFibre_Voltage_reduced'
p2620
sg1
(g2
g3
VBIOMD0000000281
p2621
tp2622
Rp2623
(dp2624
g8
Nsg9
I00
sbS'Chance1960_Glycolysis_Respiration'
p2625
sg1
(g2
g3
VBIOMD0000000282
p2626
tp2627
Rp2628
(dp2629
g8
Nsg9
I00
sbS'Chance1952_Catalase_Mechanism'
p2630
sg1
(g2
g3
VBIOMD0000000283
p2631
tp2632
Rp2633
(dp2634
g8
Nsg9
I00
sbS'Chance1943_Peroxidase_ES_Kinetics'
p2635
sg1
(g2
g3
VBIOMD0000000284
p2636
tp2637
Rp2638
(dp2639
g8
Nsg9
I00
sbS'Hofmeyer1986_SeqFb_Proc_AA_Synthesis'
p2640
sg1
(g2
g3
VBIOMD0000000285
p2641
tp2642
Rp2643
(dp2644
g8
Nsg9
I00
sbS'Tang2010_PolyGlutamate'
p2645
sg1
(g2
g3
VBIOMD0000000286
p2646
tp2647
Rp2648
(dp2649
g8
Nsg9
I00
sbS'Proctor2010_GSK3_p53_AlzheimerDisease'
p2650
sg1
(g2
g3
VBIOMD0000000287
p2651
tp2652
Rp2653
(dp2654
g8
Nsg9
I00
sbS'Passos2010_DNAdamage_CellularSenescence'
p2655
sg1
(g2
g3
VBIOMD0000000118
p2656
tp2657
Rp2658
(dp2659
g8
Nsg9
I00
sbS'Golomb2006_SomaticBursting'
p2660
sg1
(g2
g3
VBIOMD0000000119
p2661
tp2662
Rp2663
(dp2664
g8
Nsg9
I00
sbS'Golomb2006_SomaticBursting_nonzero[Ca]'
p2665
sg1
(g2
g3
VBIOMD0000000110
p2666
tp2667
Rp2668
(dp2669
g8
Nsg9
I00
sbS'Qu2003_CellCycle'
p2670
sg1
(g2
g3
VBIOMD0000000111
p2671
tp2672
Rp2673
(dp2674
g8
Nsg9
I00
sbS'Novak2001_FissionYeast_CellCycle'
p2675
sg1
(g2
g3
VBIOMD0000000112
p2676
tp2677
Rp2678
(dp2679
g8
Nsg9
I00
sbS'Clarke2006_Smad_signalling'
p2680
sg1
(g2
g3
VBIOMD0000000113
p2681
tp2682
Rp2683
(dp2684
g8
Nsg9
I00
sbS'Dupont1992_Ca_dpt_protein_phospho'
p2685
sg1
(g2
g3
VBIOMD0000000114
p2686
tp2687
Rp2688
(dp2689
g8
Nsg9
I00
sbS'Somogyi1990_CaOscillations'
p2690
sg1
(g2
g3
VBIOMD0000000115
p2691
tp2692
Rp2693
(dp2694
g8
Nsg9
I00
sbS'Somogyi1990_CaOscillations_SingleCaSpike'
p2695
sg1
(g2
g3
VBIOMD0000000116
p2696
tp2697
Rp2698
(dp2699
g8
Nsg9
I00
sbS'McClean2007_CrossTalk'
p2700
sg1
(g2
g3
VBIOMD0000000117
p2701
tp2702
Rp2703
(dp2704
g8
Nsg9
I00
sbS'Dupont1991_CaOscillation'
p2705
sg1
(g2
g3
VBIOMD0000000051
p2706
tp2707
Rp2708
(dp2709
g8
Nsg9
I00
sbS'Chassagnole2002_Carbon_Metabolism'
p2710
sg1
(g2
g3
VBIOMD0000000050
p2711
tp2712
Rp2713
(dp2714
g8
Nsg9
I00
sbS'Martins2003_AmadoriDegradation'
p2715
sg1
(g2
g3
VBIOMD0000000053
p2716
tp2717
Rp2718
(dp2719
g8
Nsg9
I00
sbS'Ferreira2003_CML_generation2'
p2720
sg1
(g2
g3
VBIOMD0000000052
p2721
tp2722
Rp2723
(dp2724
g8
Nsg9
I00
sbS'Brands2002 - Monosaccharide-casein systems'
p2725
sg1
(g2
g3
VBIOMD0000000055
p2726
tp2727
Rp2728
(dp2729
g8
Nsg9
I00
sbS'Locke2005 - Circadian Clock'
p2730
sg1
(g2
g3
VBIOMD0000000054
p2731
tp2732
Rp2733
(dp2734
g8
Nsg9
I00
sbS'Ataullahkhanov1996_Adenylate'
p2735
sg1
(g2
g3
VBIOMD0000000057
p2736
tp2737
Rp2738
(dp2739
g8
Nsg9
I00
sbS'Sneyd2002_IP3_Receptor'
p2740
sg1
(g2
g3
VBIOMD0000000056
p2741
tp2742
Rp2743
(dp2744
g8
Nsg9
I00
sbS'Chen2004 - Cell Cycle Regulation'
p2745
sg1
(g2
g3
VBIOMD0000000059
p2746
tp2747
Rp2748
(dp2749
g8
Nsg9
I00
sbS'Fridlyand2003_Calcium_flux'
p2750
sg1
(g2
g3
VBIOMD0000000058
p2751
tp2752
Rp2753
(dp2754
g8
Nsg9
I00
sbS'Bindschadler2001_coupled_Ca_oscillators'
p2755
sg1
(g2
g3
VBIOMD0000000246
p2756
tp2757
Rp2758
(dp2759
g8
Nsg9
I00
sbS'Vasalou2010_Pacemaker_Neuron_SCN'
p2760
sg1
(g2
g3
VBIOMD0000000239
p2761
tp2762
Rp2763
(dp2764
g8
Nsg9
I00
sbS'Jiang2007 - GSIS system, Pancreatic Beta Cells'
p2765
sg1
(g2
g3
VBIOMD0000000238
p2766
tp2767
Rp2768
(dp2769
g8
Nsg9
I00
sbS'Overgaard2007_PDmodel_IL21'
p2770
sg1
(g2
g3
VBIOMD0000000235
p2771
tp2772
Rp2773
(dp2774
g8
Nsg9
I00
sbS'Kuhn2009_EndoMesodermNetwork'
p2775
sg1
(g2
g3
VBIOMD0000000234
p2776
tp2777
Rp2778
(dp2779
g8
Nsg9
I00
sbS'Tham2008_PDmodel_TumourShrinkage'
p2780
sg1
(g2
g3
VBIOMD0000000237
p2781
tp2782
Rp2783
(dp2784
g8
Nsg9
I00
sbS'Schaber2006_Pheromone_Starvation_Crosstalk'
p2785
sg1
(g2
g3
VBIOMD0000000236
p2786
tp2787
Rp2788
(dp2789
g8
Nsg9
I00
sbS'Westermark2003_Pancreatic_GlycOsc_extended'
p2790
sg1
(g2
g3
VBIOMD0000000231
p2791
tp2792
Rp2793
(dp2794
g8
Nsg9
I00
sbS'Valero2006_Adenine_TernaryCycle'
p2795
sg1
(g2
g3
VBIOMD0000000230
p2796
tp2797
Rp2798
(dp2799
g8
Nsg9
I00
sbS'Ihekwaba2004_NFkB_Sensitivity'
p2800
sg1
(g2
g3
VBIOMD0000000233
p2801
tp2802
Rp2803
(dp2804
g8
Nsg9
I00
sbS'Wilhelm2009_BistableReaction'
p2805
sg1
(g2
g3
VBIOMD0000000232
p2806
tp2807
Rp2808
(dp2809
g8
Nsg9
I00
sbS'Nazaret2009_TCA_RC_ATP'
p2810
s.