(dp0
ccopy_reg
_reconstructor
p1
(csuds.sax.text
Text
p2
c__builtin__
unicode
p3
VBIOMD0000000460
p4
tp5
Rp6
(dp7
S'lang'
p8
NsS'escaped'
p9
I00
sbS'Liebal2012 - B.subtilis sigB proteolysis model'
p10
sg1
(g2
g3
VBIOMD0000000428
p11
tp12
Rp13
(dp14
g8
Nsg9
I00
sbS'Achcar2012 - Glycolysis in bloodstream form T. brucei'
p15
sg1
(g2
g3
VBIOMD0000000429
p16
tp17
Rp18
(dp19
g8
Nsg9
I00
sbS'Schaber2012 - Hog pathway in yeast'
p20
sg1
(g2
g3
VBIOMD0000000049
p21
tp22
Rp23
(dp24
g8
Nsg9
I00
sbS'Sasagawa2005_MAPK'
p25
sg1
(g2
g3
VBIOMD0000000182
p26
tp27
Rp28
(dp29
g8
Nsg9
I00
sbS'Neves2008 - Role of cell shape and size in controlling intracellular signalling'
p30
sg1
(g2
g3
VBIOMD0000000424
p31
tp32
Rp33
(dp34
g8
Nsg9
I00
sbS'Faratian2009_PTENrole_TrastuzumabResistance'
p35
sg1
(g2
g3
VBIOMD0000000327
p36
tp37
Rp38
(dp39
g8
Nsg9
I00
sbS'Whitcomb2004_Bicarbonate_Pancreas'
p40
sg1
(g2
g3
VBIOMD0000000426
p41
tp42
Rp43
(dp44
g8
Nsg9
I00
sbS'Mosca2012 - Central Carbon Metabolism Regulated by AKT'
p45
sg1
(g2
g3
VBIOMD0000000422
p46
tp47
Rp48
(dp49
g8
Nsg9
I00
sbS'Middleton2012_GibberellinSignalling'
p50
sg1
(g2
g3
VBIOMD0000000117
p51
tp52
Rp53
(dp54
g8
Nsg9
I00
sbS'Dupont1991_CaOscillation'
p55
sg1
(g2
g3
VBIOMD0000000380
p56
tp57
Rp58
(dp59
g8
Nsg9
I00
sbS'Smallbone2011_TrehaloseBiosynthesis'
p60
sg1
(g2
g3
VBIOMD0000000039
p61
tp62
Rp63
(dp64
g8
Nsg9
I00
sbS'Marhl2000_CaOscillations'
p65
sg1
(g2
g3
VBIOMD0000000229
p66
tp67
Rp68
(dp69
g8
Nsg9
I00
sbS'Ma2002_cAMP_oscillations'
p70
sg1
(g2
g3
VBIOMD0000000385
p71
tp72
Rp73
(dp74
g8
Nsg9
I00
sbS'Arnold2011_Schultz2003_RuBisCO-CalvinCycle'
p75
sg1
(g2
g3
VBIOMD0000000137
p76
tp77
Rp78
(dp79
g8
Nsg9
I00
sbS'Sedaghat2002_InsulinSignalling_noFeedback'
p80
sg1
(g2
g3
VBIOMD0000000387
p81
tp82
Rp83
(dp84
g8
Nsg9
I00
sbS'Arnold2011_Damour2007_RuBisCO-CalvinCycle'
p85
sg1
(g2
g3
VBIOMD0000000386
p86
tp87
Rp88
(dp89
g8
Nsg9
I00
sbS'Arnold2011_Sharkey2007_RuBisCO-CalvinCycle'
p90
sg1
(g2
g3
VBIOMD0000000222
p91
tp92
Rp93
(dp94
g8
Nsg9
I00
sbS'Singh2006_TCA_Ecoli_glucose'
p95
sg1
(g2
g3
VBIOMD0000000388
p96
tp97
Rp98
(dp99
g8
Nsg9
I00
sbS'Arnold2011_Zhu2009_CalvinCycle'
p100
sg1
(g2
g3
VBIOMD0000000138
p101
tp102
Rp103
(dp104
g8
Nsg9
I00
sbS'Tabak2007_dopamine'
p105
sg1
(g2
g3
VBIOMD0000000221
p106
tp107
Rp108
(dp109
g8
Nsg9
I00
sbS'Singh2006_TCA_Ecoli_acetate'
p110
sg1
(g2
g3
VBIOMD0000000037
p111
tp112
Rp113
(dp114
g8
Nsg9
I00
sbS'Marwan_Genetics_2003'
p115
sg1
(g2
g3
VBIOMD0000000202
p116
tp117
Rp118
(dp119
g8
Nsg9
I00
sbS'ChenXF2008_CICR'
p120
sg1
(g2
g3
VBIOMD0000000224
p121
tp122
Rp123
(dp124
g8
Nsg9
I00
sbS'Meyer1991_CalciumSpike_ICC'
p125
sg1
(g2
g3
VBIOMD0000000225
p126
tp127
Rp128
(dp129
g8
Nsg9
I00
sbS'Westermark2003_Pancreatic_GlycOsc_basic'
p130
sg1
(g2
g3
VBIOMD0000000309
p131
tp132
Rp133
(dp134
g8
Nsg9
I00
sbS'Tyson2003_NegFB_Homeostasis'
p135
sg1
(g2
g3
VBIOMD0000000308
p136
tp137
Rp138
(dp139
g8
Nsg9
I00
sbS'Tyson2003_NegFB_Oscillator'
p140
sg1
(g2
g3
VBIOMD0000000344
p141
tp142
Rp143
(dp144
g8
Nsg9
I00
sbS'Proctor2011_ProteinHomeostasis_NormalCondition'
p145
sg1
(g2
g3
VBIOMD0000000301
p146
tp147
Rp148
(dp149
g8
Nsg9
I00
sbS'Friedland2009_Ara_RTC3_counter'
p150
sg1
(g2
g3
VBIOMD0000000300
p151
tp152
Rp153
(dp154
g8
Nsg9
I00
sbS'Schmierer2010_FIH_Ankyrins'
p155
sg1
(g2
g3
VBIOMD0000000303
p156
tp157
Rp158
(dp159
g8
Nsg9
I00
sbS'Liu2011_Complement_System'
p160
sg1
(g2
g3
VBIOMD0000000100
p161
tp162
Rp163
(dp164
g8
Nsg9
I00
sbS'Rozi2003_GlycogenPhosphorylase_Activation'
p165
sg1
(g2
g3
VBIOMD0000000305
p166
tp167
Rp168
(dp169
g8
Nsg9
I00
sbS'Kolomeisky2003_MyosinV_Processivity'
p170
sg1
(g2
g3
VBIOMD0000000304
p171
tp172
Rp173
(dp174
g8
Nsg9
I00
sbS'Plant1981_BurstingNerveCells'
p175
sg1
(g2
g3
VBIOMD0000000307
p176
tp177
Rp178
(dp179
g8
Nsg9
I00
sbS'Tyson2003_Substrate_Depletion_Osc'
p180
sg1
(g2
g3
VBIOMD0000000306
p181
tp182
Rp183
(dp184
g8
Nsg9
I00
sbS'Tyson2003_Activator_Inhibitor'
p185
sg1
(g2
g3
VBIOMD0000000459
p186
tp187
Rp188
(dp189
g8
Nsg9
I00
sbS'Liebal2012 - B.subtilis post-transcriptional instability model'
p190
sg1
(g2
g3
VBIOMD0000000164
p191
tp192
Rp193
(dp194
g8
Nsg9
I00
sbS'SmithAE2002_RanTransport'
p195
sg1
(g2
g3
VBIOMD0000000329
p196
tp197
Rp198
(dp199
g8
Nsg9
I00
sbS'Kummer2000_CalciumSpiking'
p200
sg1
(g2
g3
VBIOMD0000000410
p201
tp202
Rp203
(dp204
g8
Nsg9
I00
sbS'Wegner2012_TGFbetaSignalling_FeedbackLoops'
p205
sg1
(g2
g3
VBIOMD0000000412
p206
tp207
Rp208
(dp209
g8
Nsg9
I00
sbS'Pokhilko2012_CircClock_RepressilatorFeedbackloop'
p210
sg1
(g2
g3
VBIOMD0000000415
p211
tp212
Rp213
(dp214
g8
Nsg9
I00
sbS'Mellor2012_LipooxygenasePathway'
p215
sg1
(g2
g3
VBIOMD0000000416
p216
tp217
Rp218
(dp219
g8
Nsg9
I00
sbS'Muraro2011_Cytokinin-Auxin_CrossRegulation'
p220
sg1
(g2
g3
VBIOMD0000000244
p221
tp222
Rp223
(dp224
g8
Nsg9
I00
sbS'Kotte2010_Ecoli_Metabolic_Adaption'
p225
sg1
(g2
g3
VBIOMD0000000398
p226
tp227
Rp228
(dp229
g8
Nsg9
I00
sbS'Sivakumar2011_NeuralStemCellDifferentiation_Crosstalk'
p230
sg1
(g2
g3
VBIOMD0000000399
p231
tp232
Rp233
(dp234
g8
Nsg9
I00
sbS'Jenkinson2011_EGF_MAPK'
p235
sg1
(g2
g3
VBIOMD0000000396
p236
tp237
Rp238
(dp239
g8
Nsg9
I00
sbS'Sivakumar2011_NotchSignalingPathway'
p240
sg1
(g2
g3
VBIOMD0000000397
p241
tp242
Rp243
(dp244
g8
Nsg9
I00
sbS'Sivakumar2011_WntSignalingPathway'
p245
sg1
(g2
g3
VBIOMD0000000394
p246
tp247
Rp248
(dp249
g8
Nsg9
I00
sbS'Sivakumar2011_EGFReceptorSignalingPathway'
p250
sg1
(g2
g3
VBIOMD0000000395
p251
tp252
Rp253
(dp254
g8
Nsg9
I00
sbS'Sivakumar2011_HedgehogSignalingPathway'
p255
sg1
(g2
g3
VBIOMD0000000392
p256
tp257
Rp258
(dp259
g8
Nsg9
I00
sbS'Arnold2011_Laisk2006_CalvinCycle_Starch_Sucrose'
p260
sg1
(g2
g3
VBIOMD0000000393
p261
tp262
Rp263
(dp264
g8
Nsg9
I00
sbS'Arnold2011_Zhu2007_CalvinCycle_Starch_Sucrose_Photorespiration'
p265
sg1
(g2
g3
VBIOMD0000000390
p266
tp267
Rp268
(dp269
g8
Nsg9
I00
sbS'Arnold2011_Giersch1990_CalvinCycle'
p270
sg1
(g2
g3
VBIOMD0000000391
p271
tp272
Rp273
(dp274
g8
Nsg9
I00
sbS'Arnold2011_Poolman2000_CalvinCycle_Starch'
p275
sg1
(g2
g3
VBIOMD0000000096
p276
tp277
Rp278
(dp279
g8
Nsg9
I00
sbS'Zeilinger2006_PRR7-PRR9light-Y'
p280
sg1
(g2
g3
VBIOMD0000000021
p281
tp282
Rp283
(dp284
g8
Nsg9
I00
sbS'Leloup1999_CircClock'
p285
sg1
(g2
g3
VBIOMD0000000022
p286
tp287
Rp288
(dp289
g8
Nsg9
I00
sbS'Ueda2001_CircClock'
p290
sg1
(g2
g3
VBIOMD0000000023
p291
tp292
Rp293
(dp294
g8
Nsg9
I00
sbS'Rohwer2001_Sucrose'
p295
sg1
(g2
g3
VBIOMD0000000024
p296
tp297
Rp298
(dp299
g8
Nsg9
I00
sbS'Scheper1999_CircClock'
p300
sg1
(g2
g3
VBIOMD0000000090
p301
tp302
Rp303
(dp304
g8
Nsg9
I00
sbS'Wolf2001_Respiratory_Oscillations'
p305
sg1
(g2
g3
VBIOMD0000000316
p306
tp307
Rp308
(dp309
g8
Nsg9
I00
sbS'Shen-Orr2002_FeedForward_AND_gate'
p310
sg1
(g2
g3
VBIOMD0000000317
p311
tp312
Rp313
(dp314
g8
Nsg9
I00
sbS'Shen-Orr2002_Single_Input_Module'
p315
sg1
(g2
g3
VBIOMD0000000314
p316
tp317
Rp318
(dp319
g8
Nsg9
I00
sbS'Raia2011_IL13_L1236'
p320
sg1
(g2
g3
VBIOMD0000000315
p321
tp322
Rp323
(dp324
g8
Nsg9
I00
sbS'Montagne2011_Oligator_optimised'
p325
sg1
(g2
g3
VBIOMD0000000312
p326
tp327
Rp328
(dp329
g8
Nsg9
I00
sbS'Tyson2003_Perfect_Adaption'
p330
sg1
(g2
g3
VBIOMD0000000313
p331
tp332
Rp333
(dp334
g8
Nsg9
I00
sbS'Raia2010_IL13_Signalling_MedB1'
p335
sg1
(g2
g3
VBIOMD0000000310
p336
tp337
Rp338
(dp339
g8
Nsg9
I00
sbS'Tyson2003_Mutual_Inhibition'
p340
sg1
(g2
g3
VBIOMD0000000311
p341
tp342
Rp343
(dp344
g8
Nsg9
I00
sbS'Tyson2003_Mutual_Activation'
p345
sg1
(g2
g3
VBIOMD0000000255
p346
tp347
Rp348
(dp349
g8
Nsg9
I00
sbS'Chen2009_ErbB_Signaling'
p350
sg1
(g2
g3
VBIOMD0000000254
p351
tp352
Rp353
(dp354
g8
Nsg9
I00
sbS'Bier2000_GlycolyticOscillation'
p355
sg1
(g2
g3
VBIOMD0000000253
p356
tp357
Rp358
(dp359
g8
Nsg9
I00
sbS'Teusink1998_Glycolysis_TurboDesign'
p360
sg1
(g2
g3
VBIOMD0000000252
p361
tp362
Rp363
(dp364
g8
Nsg9
I00
sbS'Hunziker2010_p53_StressSpecificResponse'
p365
sg1
(g2
g3
VBIOMD0000000406
p366
tp367
Rp368
(dp369
g8
Nsg9
I00
sbS'Moriya2011_CellCycle_FissionYeast'
p370
sg1
(g2
g3
VBIOMD0000000404
p371
tp372
Rp373
(dp374
g8
Nsg9
I00
sbS'Bray1993_chemotaxis'
p375
sg1
(g2
g3
VBIOMD0000000405
p376
tp377
Rp378
(dp379
g8
Nsg9
I00
sbS'Cookson2011_EnzymaticQueueingCoupling'
p380
sg1
(g2
g3
VBIOMD0000000400
p381
tp382
Rp383
(dp384
g8
Nsg9
I00
sbS'Cooling2007_IP3transients_CardiacMyocyte'
p385
sg1
(g2
g3
VBIOMD0000000408
p386
tp387
Rp388
(dp389
g8
Nsg9
I00
sbS'Hettling2011_CreatineKinase'
p390
sg1
(g2
g3
VBIOMD0000000409
p391
tp392
Rp393
(dp394
g8
Nsg9
I00
sbS'Queralt2006_MitoticExit_Cdc55DownregulationBySeparase'
p395
sg1
(g2
g3
VBIOMD0000000105
p396
tp397
Rp398
(dp399
g8
Nsg9
I00
sbS'Proctor2007_ubiquitine'
p400
sg1
(g2
g3
VBIOMD0000000015
p401
tp402
Rp403
(dp404
g8
Nsg9
I00
sbS'Curto1998_purineMetabol'
p405
sg1
(g2
g3
VBIOMD0000000213
p406
tp407
Rp408
(dp409
g8
Nsg9
I00
sbS'Nijhout2004_Folate_Cycle'
p410
sg1
(g2
g3
VBIOMD0000000017
p411
tp412
Rp413
(dp414
g8
Nsg9
I00
sbS'Hoefnagel2002_PyruvateBranches'
p415
sg1
(g2
g3
VBIOMD0000000016
p416
tp417
Rp418
(dp419
g8
Nsg9
I00
sbS'Goldbeter1995_CircClock'
p420
sg1
(g2
g3
VBIOMD0000000013
p421
tp422
Rp423
(dp424
g8
Nsg9
I00
sbS'Poolman2004_CalvinCycle'
p425
sg1
(g2
g3
VBIOMD0000000146
p426
tp427
Rp428
(dp429
g8
Nsg9
I00
sbS'Hatakeyama2003_MAPK'
p430
sg1
(g2
g3
VBIOMD0000000201
p431
tp432
Rp433
(dp434
g8
Nsg9
I00
sbS'Goldbeter2008_Somite_Segmentation_Clock_Notch_Wnt_FGF'
p435
sg1
(g2
g3
VBIOMD0000000019
p436
tp437
Rp438
(dp439
g8
Nsg9
I00
sbS'Schoeberl2002_EGF_MAPK'
p440
sg1
(g2
g3
VBIOMD0000000018
p441
tp442
Rp443
(dp444
g8
Nsg9
I00
sbS'Morrison1989_FolateCycle'
p445
sg1
(g2
g3
VBIOMD0000000144
p446
tp447
Rp448
(dp449
g8
Nsg9
I00
sbS'Calzone2007_CellCycle'
p450
sg1
(g2
g3
VBIOMD0000000099
p451
tp452
Rp453
(dp454
g8
Nsg9
I00
sbS'Laub1998_SpontaneousOscillations'
p455
sg1
(g2
g3
VBIOMD0000000098
p456
tp457
Rp458
(dp459
g8
Nsg9
I00
sbS'Goldbeter1990_CalciumSpike_CICR'
p460
sg1
(g2
g3
VBIOMD0000000152
p461
tp462
Rp463
(dp464
g8
Nsg9
I00
sbS'Fernandez2006_ModelA'
p465
sg1
(g2
g3
VBIOMD0000000153
p466
tp467
Rp468
(dp469
g8
Nsg9
I00
sbS'Fernandez2006_ModelB'
p470
sg1
(g2
g3
VBIOMD0000000095
p471
tp472
Rp473
(dp474
g8
Nsg9
I00
sbS'Zeilinger2006_PRR7-PRR9-Y'
p475
sg1
(g2
g3
VBIOMD0000000094
p476
tp477
Rp478
(dp479
g8
Nsg9
I00
sbS'Yamada2003_JAK_STAT_SOCS1_knockout'
p480
sg1
(g2
g3
VBIOMD0000000097
p481
tp482
Rp483
(dp484
g8
Nsg9
I00
sbS'Zeilinger2006_PRR7-PRR9light-Yprime'
p485
sg1
(g2
g3
VBIOMD0000000247
p486
tp487
Rp488
(dp489
g8
Nsg9
I00
sbS'Ralser2007_Carbohydrate_Rerouting_ROS'
p490
sg1
(g2
g3
VBIOMD0000000091
p491
tp492
Rp493
(dp494
g8
Nsg9
I00
sbS'Proctor2005 - Actions of chaperones and their role in ageing'
p495
sg1
(g2
g3
VBIOMD0000000241
p496
tp497
Rp498
(dp499
g8
Nsg9
I00
sbS'Shi1993_Caffeine_pressor_tolerance'
p500
sg1
(g2
g3
VBIOMD0000000093
p501
tp502
Rp503
(dp504
g8
Nsg9
I00
sbS'Yamada2003_JAK_STAT_pathway'
p505
sg1
(g2
g3
VBIOMD0000000216
p506
tp507
Rp508
(dp509
g8
Nsg9
I00
sbS'Hong2009_CircadianClock'
p510
sg1
(g2
g3
VBIOMD0000000473
p511
tp512
Rp513
(dp514
g8
Nsg9
I00
sbS'Smallbone2013 - Yeast metabolic model with modular rate law, merged with Pritchard 2002'
p515
sg1
(g2
g3
VBIOMD0000000472
p516
tp517
Rp518
(dp519
g8
Nsg9
I00
sbS'Smallbone2013 - Yeast metabolic model with modular rate law'
p520
sg1
(g2
g3
VBIOMD0000000471
p521
tp522
Rp523
(dp524
g8
Nsg9
I00
sbS'Smallbone2013 - Yeast metabolic model with linlog rate law'
p525
sg1
(g2
g3
VBIOMD0000000470
p526
tp527
Rp528
(dp529
g8
Nsg9
I00
sbS'Smallbone2013 - E.coli metabolic model with modular rate law'
p530
sg1
(g2
g3
VBIOMD0000000476
p531
tp532
Rp533
(dp534
g8
Nsg9
I00
sbS'Adams2012 - Locke2006 Circadian Rhythm model refined with Input Signal Light Function'
p535
sg1
(g2
g3
VBIOMD0000000214
p536
tp537
Rp538
(dp539
g8
Nsg9
I00
sbS'Akman2008_Circadian_Clock_Model2'
p540
sg1
(g2
g3
VBIOMD0000000383
p541
tp542
Rp543
(dp544
g8
Nsg9
I00
sbS'Arnold2011_Farquhar1980_RuBisCO-CalvinCycle'
p545
sg1
(g2
g3
VBIOMD0000000260
p546
tp547
Rp548
(dp549
g8
Nsg9
I00
sbS'Tiago2010_FeMetabolism_FeAdequate'
p550
sg1
(g2
g3
VBIOMD0000000326
p551
tp552
Rp553
(dp554
g8
Nsg9
I00
sbS'DellOrco2009_phototransduction'
p555
sg1
(g2
g3
VBIOMD0000000038
p556
tp557
Rp558
(dp559
g8
Nsg9
I00
sbS'Rohwer2000_Phosphotransferase_System'
p560
sg1
(g2
g3
VBIOMD0000000458
p561
tp562
Rp563
(dp564
g8
Nsg9
I00
sbS'Smallbone2013 - Serine biosynthesis'
p565
sg1
(g2
g3
VBIOMD0000000384
p566
tp567
Rp568
(dp569
g8
Nsg9
I00
sbS'Arnold2011_Medlyn2002_RuBisCO-CalvinCycle'
p570
sg1
(g2
g3
VBIOMD0000000002
p571
tp572
Rp573
(dp574
g8
Nsg9
I00
sbS'Edelstein1996 - EPSP ACh species'
p575
sg1
(g2
g3
VBIOMD0000000218
p576
tp577
Rp578
(dp579
g8
Nsg9
I00
sbS'Singh2006_TCA_mtu_model2'
p580
sg1
(g2
g3
VBIOMD0000000488
p581
tp582
Rp583
(dp584
g8
Nsg9
I00
sbS"Proctor2013 - Effect of A\xce\xb2 immunisation in Alzheimer's disease"
p585
sg1
(g2
g3
VBIOMD0000000482
p586
tp587
Rp588
(dp589
g8
Nsg9
I00
sbS'Noguchi2013 - Insulin dependent glucose metabolism'
p590
sg1
(g2
g3
VBIOMD0000000325
p591
tp592
Rp593
(dp594
g8
Nsg9
I00
sbS'Palini2011_Minimal_2_Feedback_Model'
p595
sg1
(g2
g3
VBIOMD0000000161
p596
tp597
Rp598
(dp599
g8
Nsg9
I00
sbS'Eungdamrong2007_Ras_Activation'
p600
sg1
(g2
g3
VBIOMD0000000389
p601
tp602
Rp603
(dp604
g8
Nsg9
I00
sbS'Arnold2011_Hahn1986_CalvinCycle_Starch_Sucrose'
p605
sg1
(g2
g3
VBIOMD0000000088
p606
tp607
Rp608
(dp609
g8
Nsg9
I00
sbS'Maeda2006_MyosinPhosphorylation'
p610
sg1
(g2
g3
VBIOMD0000000162
p611
tp612
Rp613
(dp614
g8
Nsg9
I00
sbS'Hernjak2005_Calcium_Signaling'
p615
sg1
(g2
g3
VBIOMD0000000374
p616
tp617
Rp618
(dp619
g8
Nsg9
I00
sbS'Bertram1995_PancreaticBetaCell_CRAC'
p620
sg1
(g2
g3
VBIOMD0000000375
p621
tp622
Rp623
(dp624
g8
Nsg9
I00
sbS'Mears1997_CRAC_PancreaticBetaCells'
p625
sg1
(g2
g3
VBIOMD0000000376
p626
tp627
Rp628
(dp629
g8
Nsg9
I00
sbS'Bertram2007_IsletCell_Oscillations'
p630
sg1
(g2
g3
VBIOMD0000000166
p631
tp632
Rp633
(dp634
g8
Nsg9
I00
sbS'Zhu2007_TF_modulated_by_Calcium'
p635
sg1
(g2
g3
VBIOMD0000000082
p636
tp637
Rp638
(dp639
g8
Nsg9
I00
sbS'Thomsen1988_AdenylateCyclase_Inhibition'
p640
sg1
(g2
g3
VBIOMD0000000083
p641
tp642
Rp643
(dp644
g8
Nsg9
I00
sbS'Leloup2003_CircClock_LD_REV-ERBalpha'
p645
sg1
(g2
g3
VBIOMD0000000080
p646
tp647
Rp648
(dp649
g8
Nsg9
I00
sbS'Thomsen1989_AdenylateCyclase'
p650
sg1
(g2
g3
VBIOMD0000000081
p651
tp652
Rp653
(dp654
g8
Nsg9
I00
sbS'Suh2004_KCNQ_Regulation'
p655
sg1
(g2
g3
VBIOMD0000000086
p656
tp657
Rp658
(dp659
g8
Nsg9
I00
sbS'Bornheimer2004_GTPaseCycle'
p660
sg1
(g2
g3
VBIOMD0000000087
p661
tp662
Rp663
(dp664
g8
Nsg9
I00
sbS'Proctor2006_telomere'
p665
sg1
(g2
g3
VBIOMD0000000277
p666
tp667
Rp668
(dp669
g8
Nsg9
I00
sbS'Shrestha2010_HyperCalcemia_PTHresponse'
p670
sg1
(g2
g3
VBIOMD0000000085
p671
tp672
Rp673
(dp674
g8
Nsg9
I00
sbS'Maurya2005_GTPaseCycle_reducedOrder'
p675
sg1
(g2
g3
VBIOMD0000000183
p676
tp677
Rp678
(dp679
g8
Nsg9
I00
sbS'Stefan2008_calmodulin_allostery'
p680
sg1
(g2
g3
VBIOMD0000000461
p681
tp682
Rp683
(dp684
g8
Nsg9
I00
sbS'Liebal2012 - B.subtilis transcription inhibition model'
p685
sg1
(g2
g3
VBIOMD0000000462
p686
tp687
Rp688
(dp689
g8
Nsg9
I00
sbS'Proctor2012 - Amyloid-beta aggregation'
p690
sg1
(g2
g3
VBIOMD0000000180
p691
tp692
Rp693
(dp694
g8
Nsg9
I00
sbS'Kim2007_CellularMemory_SymmetricModel'
p695
sg1
(g2
g3
VBIOMD0000000464
p696
tp697
Rp698
(dp699
g8
Nsg9
I00
sbS'Koo2013 - Shear stress induced calcium influx and eNOS activation - Model 1'
p700
sg1
(g2
g3
VBIOMD0000000465
p701
tp702
Rp703
(dp704
g8
Nsg9
I00
sbS'Koo2013 - Shear stress induced AKT and eNOS phosphorylation - Model 2'
p705
sg1
(g2
g3
VBIOMD0000000466
p706
tp707
Rp708
(dp709
g8
Nsg9
I00
sbS'Koo2013 - Shear stress induced eNOS expression - Model 3'
p710
sg1
(g2
g3
VBIOMD0000000467
p711
tp712
Rp713
(dp714
g8
Nsg9
I00
sbS'Koo2013 - Shear stress induced NO production - Model 4'
p715
sg1
(g2
g3
VBIOMD0000000468
p716
tp717
Rp718
(dp719
g8
Nsg9
I00
sbS'Koo2013 - Integrated shear stress induced NO production model'
p720
sg1
(g2
g3
VBIOMD0000000469
p721
tp722
Rp723
(dp724
g8
Nsg9
I00
sbS'Smallbone2013 - E.coli metabolic model with linlog rate law'
p725
sg1
(g2
g3
VBIOMD0000000189
p726
tp727
Rp728
(dp729
g8
Nsg9
I00
sbS'Proctor2008_p53_Mdm2_ARF'
p730
sg1
(g2
g3
VBIOMD0000000188
p731
tp732
Rp733
(dp734
g8
Nsg9
I00
sbS'Proctor2008_p53_Mdm2_ATM'
p735
sg1
(g2
g3
VBIOMD0000000035
p736
tp737
Rp738
(dp739
g8
Nsg9
I00
sbS'Vilar2002_Oscillator'
p740
sg1
(g2
g3
VBIOMD0000000339
p741
tp742
Rp743
(dp744
g8
Nsg9
I00
sbS'Wajima2009_BloodCoagulation_PTtest'
p745
sg1
(g2
g3
VBIOMD0000000347
p746
tp747
Rp748
(dp749
g8
Nsg9
I00
sbS'Bachmann2011_JAK2-STAT5_FeedbackControl'
p750
sg1
(g2
g3
VBIOMD0000000349
p751
tp752
Rp753
(dp754
g8
Nsg9
I00
sbS'Fridlyand2010_GlucoseSensitivity_B'
p755
sg1
(g2
g3
VBIOMD0000000348
p756
tp757
Rp758
(dp759
g8
Nsg9
I00
sbS'Fridlyand2010_GlucoseSensitivity_A'
p760
sg1
(g2
g3
VBIOMD0000000322
p761
tp762
Rp763
(dp764
g8
Nsg9
I00
sbS'Kim2011_Oscillator_SimpleI'
p765
sg1
(g2
g3
VBIOMD0000000179
p766
tp767
Rp768
(dp769
g8
Nsg9
I00
sbS'Kim2007_CellularMemory_AsymmetricModel'
p770
sg1
(g2
g3
VBIOMD0000000176
p771
tp772
Rp773
(dp774
g8
Nsg9
I00
sbS'Conant2007_WGD_glycolysis_2A3AB'
p775
sg1
(g2
g3
VBIOMD0000000177
p776
tp777
Rp778
(dp779
g8
Nsg9
I00
sbS'Conant2007_glycolysis_2C'
p780
sg1
(g2
g3
VBIOMD0000000174
p781
tp782
Rp783
(dp784
g8
Nsg9
I00
sbS'Del_Conte_Zerial2008_Rab5_Rab7_cut_out_switch'
p785
sg1
(g2
g3
VBIOMD0000000175
p786
tp787
Rp788
(dp789
g8
Nsg9
I00
sbS'Birtwistle2007_ErbB_Signalling'
p790
sg1
(g2
g3
VBIOMD0000000172
p791
tp792
Rp793
(dp794
g8
Nsg9
I00
sbS'Pritchard2002_glycolysis'
p795
sg1
(g2
g3
VBIOMD0000000340
p796
tp797
Rp798
(dp799
g8
Nsg9
I00
sbS'Wajima2009_BloodCoagulation_warfarin_heparin'
p800
sg1
(g2
g3
VBIOMD0000000343
p801
tp802
Rp803
(dp804
g8
Nsg9
I00
sbS'Brannmark2010_InsulinSignalling_Mifamodel'
p805
sg1
(g2
g3
VBIOMD0000000171
p806
tp807
Rp808
(dp809
g8
Nsg9
I00
sbS'Leloup1998_CircClock_LD'
p810
sg1
(g2
g3
VBIOMD0000000077
p811
tp812
Rp813
(dp814
g8
Nsg9
I00
sbS'Blum2000_LHsecretion_1'
p815
sg1
(g2
g3
VBIOMD0000000076
p816
tp817
Rp818
(dp819
g8
Nsg9
I00
sbS'Cronwright2002_Glycerol_Synthesis'
p820
sg1
(g2
g3
VBIOMD0000000264
p821
tp822
Rp823
(dp824
g8
Nsg9
I00
sbS'Fujita2010_Akt_Signalling_EGFRinhib'
p825
sg1
(g2
g3
VBIOMD0000000074
p826
tp827
Rp828
(dp829
g8
Nsg9
I00
sbS'Leloup2003_CircClock_DD_REV-ERBalpha'
p830
sg1
(g2
g3
VBIOMD0000000073
p831
tp832
Rp833
(dp834
g8
Nsg9
I00
sbS'Leloup2003_CircClock_DD'
p835
sg1
(g2
g3
VBIOMD0000000072
p836
tp837
Rp838
(dp839
g8
Nsg9
I00
sbS'Yi2003_GproteinCycle'
p840
sg1
(g2
g3
VBIOMD0000000165
p841
tp842
Rp843
(dp844
g8
Nsg9
I00
sbS'Saucerman2006_PKA'
p845
sg1
(g2
g3
VBIOMD0000000070
p846
tp847
Rp848
(dp849
g8
Nsg9
I00
sbS'Holzhutter2004_Erythrocyte_Metabolism'
p850
sg1
(g2
g3
VBIOMD0000000245
p851
tp852
Rp853
(dp854
g8
Nsg9
I00
sbS'Lei2001_Yeast_Aerobic_Metabolism'
p855
sg1
(g2
g3
VBIOMD0000000268
p856
tp857
Rp858
(dp859
g8
Nsg9
I00
sbS'Reed2008_Glutathione_Metabolism'
p860
sg1
(g2
g3
VBIOMD0000000269
p861
tp862
Rp863
(dp864
g8
Nsg9
I00
sbS'Liu2010_Hormonal_Crosstalk_Arabidopsis'
p865
sg1
(g2
g3
VBIOMD0000000190
p866
tp867
Rp868
(dp869
g8
Nsg9
I00
sbS'Rodriguez-Caso2006_Polyamine_Metabolism'
p870
sg1
(g2
g3
VBIOMD0000000191
p871
tp872
Rp873
(dp874
g8
Nsg9
I00
sbS'Monta\xc3\xb1ez2008_Arginine_catabolism'
p875
sg1
(g2
g3
VBIOMD0000000192
p876
tp877
Rp878
(dp879
g8
Nsg9
I00
sbS'G\xc3\xb6rlich2003_RanGTP_gradient'
p880
sg1
(g2
g3
VBIOMD0000000071
p881
tp882
Rp883
(dp884
g8
Nsg9
I00
sbS'Bakker2001_Glycolysis'
p885
sg1
(g2
g3
VBIOMD0000000124
p886
tp887
Rp888
(dp889
g8
Nsg9
I00
sbS'Wu2006_K+Channel'
p890
sg1
(g2
g3
VBIOMD0000000198
p891
tp892
Rp893
(dp894
g8
Nsg9
I00
sbS'Stone1996_NOsGC'
p895
sg1
(g2
g3
VBIOMD0000000199
p896
tp897
Rp898
(dp899
g8
Nsg9
I00
sbS'Santolini2001_nNOS_Mechanism_Regulation'
p900
sg1
(g2
g3
VBIOMD0000000261
p901
tp902
Rp903
(dp904
g8
Nsg9
I00
sbS'Tiago2010_FeMetabolism_FeLoaded'
p905
sg1
(g2
g3
VBIOMD0000000052
p906
tp907
Rp908
(dp909
g8
Nsg9
I00
sbS'Brands2002 - Monosaccharide-casein systems'
p910
sg1
(g2
g3
VBIOMD0000000299
p911
tp912
Rp913
(dp914
g8
Nsg9
I00
sbS'Leloup1999_CircadianRhythms_Neurospora'
p915
sg1
(g2
g3
VBIOMD0000000298
p916
tp917
Rp918
(dp919
g8
Nsg9
I00
sbS'Leloup1999_CircadianRhythms_Drosophila'
p920
sg1
(g2
g3
VBIOMD0000000293
p921
tp922
Rp923
(dp924
g8
Nsg9
I00
sbS'Proctor2010_UCHL1_ProteinAggregation'
p925
sg1
(g2
g3
VBIOMD0000000292
p926
tp927
Rp928
(dp929
g8
Nsg9
I00
sbS'Rovers1995_Photsynthetic_Oscillations'
p930
sg1
(g2
g3
VBIOMD0000000291
p931
tp932
Rp933
(dp934
g8
Nsg9
I00
sbS'Nikolaev2005_AlbuminBilirubinAdsorption'
p935
sg1
(g2
g3
VBIOMD0000000170
p936
tp937
Rp938
(dp939
g8
Nsg9
I00
sbS'Weimann2004_CircadianOscillator'
p940
sg1
(g2
g3
VBIOMD0000000296
p941
tp942
Rp943
(dp944
g8
Nsg9
I00
sbS'Balagadd\xc3\xa92008_E_coli_Predator_Prey'
p945
sg1
(g2
g3
VBIOMD0000000212
p946
tp947
Rp948
(dp949
g8
Nsg9
I00
sbS'Curien2009_Aspartate_Metabolism'
p950
sg1
(g2
g3
VBIOMD0000000108
p951
tp952
Rp953
(dp954
g8
Nsg9
I00
sbS'Kowald2006_SOD'
p955
sg1
(g2
g3
VBIOMD0000000321
p956
tp957
Rp958
(dp959
g8
Nsg9
I00
sbS'Grange2001 - L Dopa PK model'
p960
sg1
(g2
g3
VBIOMD0000000352
p961
tp962
Rp963
(dp964
g8
Nsg9
I00
sbS'Vernoux2011_AuxinSignaling_AuxinFluctuating'
p965
sg1
(g2
g3
VBIOMD0000000353
p966
tp967
Rp968
(dp969
g8
Nsg9
I00
sbS'Nag2011_ChloroplasticStarchDegradation'
p970
sg1
(g2
g3
VBIOMD0000000350
p971
tp972
Rp973
(dp974
g8
Nsg9
I00
sbS'Troein2011_ClockCircuit_OstreococcusTauri'
p975
sg1
(g2
g3
VBIOMD0000000351
p976
tp977
Rp978
(dp979
g8
Nsg9
I00
sbS'Vernoux2011_AuxinSignaling_AuxinSingleStepInput'
p980
sg1
(g2
g3
VBIOMD0000000356
p981
tp982
Rp983
(dp984
g8
Nsg9
I00
sbS'Nyman2011_M3Hierarachical_InsulinGlucosedynamics'
p985
sg1
(g2
g3
VBIOMD0000000106
p986
tp987
Rp988
(dp989
g8
Nsg9
I00
sbS'Yang2007_ArachidonicAcid'
p990
sg1
(g2
g3
VBIOMD0000000354
p991
tp992
Rp993
(dp994
g8
Nsg9
I00
sbS'Abell2011_CalciumSignaling_WithoutAdaptation'
p995
sg1
(g2
g3
VBIOMD0000000355
p996
tp997
Rp998
(dp999
g8
Nsg9
I00
sbS'Abell2011_CalciumSignaling_WithAdaptation'
p1000
sg1
(g2
g3
VBIOMD0000000064
p1001
tp1002
Rp1003
(dp1004
g8
Nsg9
I00
sbS'Teusink2000_Glycolysis'
p1005
sg1
(g2
g3
VBIOMD0000000065
p1006
tp1007
Rp1008
(dp1009
g8
Nsg9
I00
sbS'Yildirim2003_Lac_Operon'
p1010
sg1
(g2
g3
VBIOMD0000000211
p1011
tp1012
Rp1013
(dp1014
g8
Nsg9
I00
sbS'Albert2005_Glycolysis'
p1015
sg1
(g2
g3
VBIOMD0000000067
p1016
tp1017
Rp1018
(dp1019
g8
Nsg9
I00
sbS'Fung2005_Metabolic_Oscillator'
p1020
sg1
(g2
g3
VBIOMD0000000217
p1021
tp1022
Rp1023
(dp1024
g8
Nsg9
I00
sbS'Bruggeman2005_AmmoniumAssimilation'
p1025
sg1
(g2
g3
VBIOMD0000000061
p1026
tp1027
Rp1028
(dp1029
g8
Nsg9
I00
sbS'Hynne2001_Glycolysis'
p1030
sg1
(g2
g3
VBIOMD0000000062
p1031
tp1032
Rp1033
(dp1034
g8
Nsg9
I00
sbS'Bhartiya2003_Tryptophan_operon'
p1035
sg1
(g2
g3
VBIOMD0000000063
p1036
tp1037
Rp1038
(dp1039
g8
Nsg9
I00
sbS'Galazzo1990_FermentationPathwayKinetics'
p1040
sg1
(g2
g3
VBIOMD0000000054
p1041
tp1042
Rp1043
(dp1044
g8
Nsg9
I00
sbS'Ataullahkhanov1996_Adenylate'
p1045
sg1
(g2
g3
VBIOMD0000000219
p1046
tp1047
Rp1048
(dp1049
g8
Nsg9
I00
sbS'Singh2006_TCA_mtu_model1'
p1050
sg1
(g2
g3
VBIOMD0000000078
p1051
tp1052
Rp1053
(dp1054
g8
Nsg9
I00
sbS'Leloup2003_CircClock_LD'
p1055
sg1
(g2
g3
VBIOMD0000000068
p1056
tp1057
Rp1058
(dp1059
g8
Nsg9
I00
sbS'Curien2003_MetThr_synthesis'
p1060
sg1
(g2
g3
VBIOMD0000000236
p1061
tp1062
Rp1063
(dp1064
g8
Nsg9
I00
sbS'Westermark2003_Pancreatic_GlycOsc_extended'
p1065
sg1
(g2
g3
VBIOMD0000000320
p1066
tp1067
Rp1068
(dp1069
g8
Nsg9
I00
sbS'Grange2001 - PK interaction of L-dopa and benserazide'
p1070
sg1
(g2
g3
VBIOMD0000000042
p1071
tp1072
Rp1073
(dp1074
g8
Nsg9
I00
sbS'Nielsen1998_Glycolysis'
p1075
sg1
(g2
g3
VBIOMD0000000066
p1076
tp1077
Rp1078
(dp1079
g8
Nsg9
I00
sbS'Chassagnole2001_Threonine Synthesis'
p1080
sg1
(g2
g3
VBIOMD0000000043
p1081
tp1082
Rp1083
(dp1084
g8
Nsg9
I00
sbS'Borghans1997 - Calcium Oscillation - Model 1'
p1085
sg1
(g2
g3
VBIOMD0000000145
p1086
tp1087
Rp1088
(dp1089
g8
Nsg9
I00
sbS'Wang2007_ATP_induced_Ca_Oscillation'
p1090
sg1
(g2
g3
VBIOMD0000000281
p1091
tp1092
Rp1093
(dp1094
g8
Nsg9
I00
sbS'Chance1960_Glycolysis_Respiration'
p1095
sg1
(g2
g3
VBIOMD0000000282
p1096
tp1097
Rp1098
(dp1099
g8
Nsg9
I00
sbS'Chance1952_Catalase_Mechanism'
p1100
sg1
(g2
g3
VBIOMD0000000283
p1101
tp1102
Rp1103
(dp1104
g8
Nsg9
I00
sbS'Chance1943_Peroxidase_ES_Kinetics'
p1105
sg1
(g2
g3
VBIOMD0000000286
p1106
tp1107
Rp1108
(dp1109
g8
Nsg9
I00
sbS'Proctor2010_GSK3_p53_AlzheimerDisease'
p1110
sg1
(g2
g3
VBIOMD0000000287
p1111
tp1112
Rp1113
(dp1114
g8
Nsg9
I00
sbS'Passos2010_DNAdamage_CellularSenescence'
p1115
sg1
(g2
g3
VBIOMD0000000119
p1116
tp1117
Rp1118
(dp1119
g8
Nsg9
I00
sbS'Golomb2006_SomaticBursting_nonzero[Ca]'
p1120
sg1
(g2
g3
VBIOMD0000000047
p1121
tp1122
Rp1123
(dp1124
g8
Nsg9
I00
sbS'Oxhamre2005_Ca_oscillation'
p1125
sg1
(g2
g3
VBIOMD0000000248
p1126
tp1127
Rp1128
(dp1129
g8
Nsg9
I00
sbS'Lai2007_O2_Transport_Metabolism'
p1130
sg1
(g2
g3
VBIOMD0000000112
p1131
tp1132
Rp1133
(dp1134
g8
Nsg9
I00
sbS'Clarke2006_Smad_signalling'
p1135
sg1
(g2
g3
VBIOMD0000000113
p1136
tp1137
Rp1138
(dp1139
g8
Nsg9
I00
sbS'Dupont1992_Ca_dpt_protein_phospho'
p1140
sg1
(g2
g3
VBIOMD0000000114
p1141
tp1142
Rp1143
(dp1144
g8
Nsg9
I00
sbS'Somogyi1990_CaOscillations'
p1145
sg1
(g2
g3
VBIOMD0000000115
p1146
tp1147
Rp1148
(dp1149
g8
Nsg9
I00
sbS'Somogyi1990_CaOscillations_SingleCaSpike'
p1150
sg1
(g2
g3
VBIOMD0000000266
p1151
tp1152
Rp1153
(dp1154
g8
Nsg9
I00
sbS'Voit2003_Trehalose_Cycle'
p1155
sg1
(g2
g3
VBIOMD0000000051
p1156
tp1157
Rp1158
(dp1159
g8
Nsg9
I00
sbS'Chassagnole2002_Carbon_Metabolism'
p1160
sg1
(g2
g3
VBIOMD0000000050
p1161
tp1162
Rp1163
(dp1164
g8
Nsg9
I00
sbS'Martins2003_AmadoriDegradation'
p1165
sg1
(g2
g3
VBIOMD0000000053
p1166
tp1167
Rp1168
(dp1169
g8
Nsg9
I00
sbS'Ferreira2003_CML_generation2'
p1170
sg1
(g2
g3
VBIOMD0000000089
p1171
tp1172
Rp1173
(dp1174
g8
Nsg9
I00
sbS'Locke2006_CircClock_LL'
p1175
sg1
(g2
g3
VBIOMD0000000055
p1176
tp1177
Rp1178
(dp1179
g8
Nsg9
I00
sbS'Locke2005 - Circadian Clock'
p1180
sg1
(g2
g3
VBIOMD0000000205
p1181
tp1182
Rp1183
(dp1184
g8
Nsg9
I00
sbS'Ung2008_EGFR_Endocytosis'
p1185
sg1
(g2
g3
VBIOMD0000000206
p1186
tp1187
Rp1188
(dp1189
g8
Nsg9
I00
sbS'Wolf2000_Glycolytic_Oscillations'
p1190
sg1
(g2
g3
VBIOMD0000000328
p1191
tp1192
Rp1193
(dp1194
g8
Nsg9
I00
sbS'Bucher2011_Atorvastatin_Metabolism'
p1195
sg1
(g2
g3
VBIOMD0000000059
p1196
tp1197
Rp1198
(dp1199
g8
Nsg9
I00
sbS'Fridlyand2003_Calcium_flux'
p1200
sg1
(g2
g3
VBIOMD0000000058
p1201
tp1202
Rp1203
(dp1204
g8
Nsg9
I00
sbS'Bindschadler2001_coupled_Ca_oscillators'
p1205
sg1
(g2
g3
VBIOMD0000000457
p1206
tp1207
Rp1208
(dp1209
g8
Nsg9
I00
sbS'Firczuk2013 - Eukaryotic mRNA translation machinery'
p1210
sg1
(g2
g3
VBIOMD0000000323
p1211
tp1212
Rp1213
(dp1214
g8
Nsg9
I00
sbS'Kim2011_Oscillator_SimpleIII'
p1215
sg1
(g2
g3
VBIOMD0000000450
p1216
tp1217
Rp1218
(dp1219
g8
Nsg9
I00
sbS'Reyes-Palomares2012 -  a combined model hepatic polyamine and sulfur aminoacid metabolism - version2'
p1220
sg1
(g2
g3
VBIOMD0000000453
p1221
tp1222
Rp1223
(dp1224
g8
Nsg9
I00
sbS'Bidkhori2012 - EGFR signalling in NSCLC'
p1225
sg1
(g2
g3
VBIOMD0000000452
p1226
tp1227
Rp1228
(dp1229
g8
Nsg9
I00
sbS'Bidkhori2012 - normal EGFR signalling'
p1230
sg1
(g2
g3
VBIOMD0000000438
p1231
tp1232
Rp1233
(dp1234
g8
Nsg9
I00
sbS'Saeidi2012 - Quorum sensing device that produces GFP'
p1235
sg1
(g2
g3
VBIOMD0000000437
p1236
tp1237
Rp1238
(dp1239
g8
Nsg9
I00
sbS'Tseng2012 - Circadian clock of N.crassa'
p1240
sg1
(g2
g3
VBIOMD0000000436
p1241
tp1242
Rp1243
(dp1244
g8
Nsg9
I00
sbS'Gupta2009 - Eicosanoid Metabolism'
p1245
sg1
(g2
g3
VBIOMD0000000434
p1246
tp1247
Rp1248
(dp1249
g8
Nsg9
I00
sbS'McAuley2012 - Whole-body Cholesterol Metabolism'
p1250
sg1
(g2
g3
VBIOMD0000000041
p1251
tp1252
Rp1253
(dp1254
g8
Nsg9
I00
sbS'Kongas2007 - Creatine Kinase in energy metabolic signaling in muscle'
p1255
sg1
(g2
g3
VBIOMD0000000259
p1256
tp1257
Rp1258
(dp1259
g8
Nsg9
I00
sbS'Tiago2010_FeMetabolism_FeDeficient'
p1260
sg1
(g2
g3
VBIOMD0000000378
p1261
tp1262
Rp1263
(dp1264
g8
Nsg9
I00
sbS'Chay1997_CalciumConcentration'
p1265
sg1
(g2
g3
VBIOMD0000000185
p1266
tp1267
Rp1268
(dp1269
g8
Nsg9
I00
sbS'Locke2008_Circadian_Clock'
p1270
sg1
(g2
g3
VBIOMD0000000246
p1271
tp1272
Rp1273
(dp1274
g8
Nsg9
I00
sbS'Vasalou2010_Pacemaker_Neuron_SCN'
p1275
sg1
(g2
g3
VBIOMD0000000379
p1276
tp1277
Rp1278
(dp1279
g8
Nsg9
I00
sbS'DallaMan2007_MealModel_GlucoseInsulinSystem'
p1280
sg1
(g2
g3
VBIOMD0000000372
p1281
tp1282
Rp1283
(dp1284
g8
Nsg9
I00
sbS'Tolic2000_InsulinGlucoseFeedback'
p1285
sg1
(g2
g3
VBIOMD0000000341
p1286
tp1287
Rp1288
(dp1289
g8
Nsg9
I00
sbS'Topp2000_BetaCellMass_Diabetes'
p1290
sg1
(g2
g3
VBIOMD0000000273
p1291
tp1292
Rp1293
(dp1294
g8
Nsg9
I00
sbS'Pokhilko2010_CircClock'
p1295
sg1
(g2
g3
VBIOMD0000000045
p1296
tp1297
Rp1298
(dp1299
g8
Nsg9
I00
sbS'Borghans1997 - Calcium Oscillation - Model 3'
p1300
sg1
(g2
g3
VBIOMD0000000143
p1301
tp1302
Rp1303
(dp1304
g8
Nsg9
I00
sbS'Olsen2003_neutrophil_oscillatory_metabolism'
p1305
sg1
(g2
g3
VBIOMD0000000239
p1306
tp1307
Rp1308
(dp1309
g8
Nsg9
I00
sbS'Jiang2007 - GSIS system, Pancreatic Beta Cells'
p1310
sg1
(g2
g3
VBIOMD0000000123
p1311
tp1312
Rp1313
(dp1314
g8
Nsg9
I00
sbS'Fisher2006_NFAT_Activation'
p1315
sg1
(g2
g3
VBIOMD0000000122
p1316
tp1317
Rp1318
(dp1319
g8
Nsg9
I00
sbS'Fisher2006_Ca_Oscillation_dpdnt_NFAT_dynamics'
p1320
sg1
(g2
g3
VBIOMD0000000046
p1321
tp1322
Rp1323
(dp1324
g8
Nsg9
I00
sbS'Olsen2003_peroxidase'
p1325
sg1
(g2
g3
VBIOMD0000000275
p1326
tp1327
Rp1328
(dp1329
g8
Nsg9
I00
sbS'Goldbeter2007_Somitogenesis_Switch'
p1330
sg1
(g2
g3
VBIOMD0000000044
p1331
tp1332
Rp1333
(dp1334
g8
Nsg9
I00
sbS'Borghans1997 - Calcium Oscillation - Model 2'
p1335
sg1
(g2
g3
VBIOMD0000000012
p1336
tp1337
Rp1338
(dp1339
g8
Nsg9
I00
sbS'Elowitz2000 - Repressilator'
p1340
sg1
(g2
g3
VBIOMD0000000231
p1341
tp1342
Rp1343
(dp1344
g8
Nsg9
I00
sbS'Valero2006_Adenine_TernaryCycle'
p1345
sg1
(g2
g3
VBIOMD0000000128
p1346
tp1347
Rp1348
(dp1349
g8
Nsg9
I00
sbS'Bertram2006_Endothelin'
p1350
sg1
(g2
g3
VBIOMD0000000040
p1351
tp1352
Rp1353
(dp1354
g8
Nsg9
I00
sbS'Field1974_Oregonator'
p1355
sg1
(g2
g3
VBIOMD0000000232
p1356
tp1357
Rp1358
(dp1359
g8
Nsg9
I00
sbS'Nazaret2009_TCA_RC_ATP'
p1360
sg1
(g2
g3
VBIOMD0000000184
p1361
tp1362
Rp1363
(dp1364
g8
Nsg9
I00
sbS'Lavrentovich2008_Ca_Oscillations'
p1365
sg1
(g2
g3
VBIOMD0000000382
p1366
tp1367
Rp1368
(dp1369
g8
Nsg9
I00
sbS'Sturis1991_InsulinGlucoseModel_UltradianOscillation'
p1370
sg1
(g2
g3
VBIOMD0000000448
p1371
tp1372
Rp1373
(dp1374
g8
Nsg9
I00
sbS'Br\xc3\xa4nnmark2013 - Insulin signalling in human adipocytes (normal condition)'
p1375
sg1
(g2
g3
VBIOMD0000000449
p1376
tp1377
Rp1378
(dp1379
g8
Nsg9
I00
sbS'Br\xc3\xa4nnmark2013 - Insulin signalling in human adipocytes (diabetic condition)'
p1380
sg1
(g2
g3
VBIOMD0000000338
p1381
tp1382
Rp1383
(dp1384
g8
Nsg9
I00
sbS'Wajima2009_BloodCoagulation_aPTTtest'
p1385
sg1
(g2
g3
VBIOMD0000000215
p1386
tp1387
Rp1388
(dp1389
g8
Nsg9
I00
sbS'Schulz2009_Th1_differentiation'
p1390
sg1
(g2
g3
VBIOMD0000000373
p1391
tp1392
Rp1393
(dp1394
g8
Nsg9
I00
sbS'Bertram2004_PancreaticBetaCell_modelB'
p1395
sg1
(g2
g3
VBIOMD0000000276
p1396
tp1397
Rp1398
(dp1399
g8
Nsg9
I00
sbS'Shrestha2010_HypoCalcemia_PTHresponse'
p1400
sg1
(g2
g3
VBIOMD0000000330
p1401
tp1402
Rp1403
(dp1404
g8
Nsg9
I00
sbS'Larsen2004_CalciumSpiking'
p1405
sg1
(g2
g3
VBIOMD0000000445
p1406
tp1407
Rp1408
(dp1409
g8
Nsg9
I00
sbS'Pokhilko2013 - TOC1 signalling in Arabidopsis circadian clock'
p1410
s.