(lp0
(lp1
cdecimal
Decimal
p2
(S'0'
p3
tp4
Rp5
ag2
(g3
tp6
Rp7
ag2
(S'0.498'
p8
tp9
Rp10
aa(lp11
g2
(g3
tp12
Rp13
ag2
(g3
tp14
Rp15
ag2
(S'0.514'
p16
tp17
Rp18
aa(lp19
g2
(g3
tp20
Rp21
ag2
(g3
tp22
Rp23
ag2
(S'0.529'
p24
tp25
Rp26
aa(lp27
g2
(g3
tp28
Rp29
ag2
(g3
tp30
Rp31
ag2
(S'0.545'
p32
tp33
Rp34
aa(lp35
g2
(g3
tp36
Rp37
ag2
(g3
tp38
Rp39
ag2
(S'0.561'
p40
tp41
Rp42
aa(lp43
g2
(g3
tp44
Rp45
ag2
(g3
tp46
Rp47
ag2
(S'0.576'
p48
tp49
Rp50
aa(lp51
g2
(g3
tp52
Rp53
ag2
(g3
tp54
Rp55
ag2
(S'0.592'
p56
tp57
Rp58
aa(lp59
g2
(g3
tp60
Rp61
ag2
(g3
tp62
Rp63
ag2
(S'0.608'
p64
tp65
Rp66
aa(lp67
g2
(g3
tp68
Rp69
ag2
(g3
tp70
Rp71
ag2
(S'0.624'
p72
tp73
Rp74
aa(lp75
g2
(g3
tp76
Rp77
ag2
(g3
tp78
Rp79
ag2
(S'0.639'
p80
tp81
Rp82
aa(lp83
g2
(g3
tp84
Rp85
ag2
(g3
tp86
Rp87
ag2
(S'0.655'
p88
tp89
Rp90
aa(lp91
g2
(g3
tp92
Rp93
ag2
(g3
tp94
Rp95
ag2
(S'0.671'
p96
tp97
Rp98
aa(lp99
g2
(g3
tp100
Rp101
ag2
(g3
tp102
Rp103
ag2
(S'0.686'
p104
tp105
Rp106
aa(lp107
g2
(g3
tp108
Rp109
ag2
(g3
tp110
Rp111
ag2
(S'0.702'
p112
tp113
Rp114
aa(lp115
g2
(g3
tp116
Rp117
ag2
(g3
tp118
Rp119
ag2
(S'0.718'
p120
tp121
Rp122
aa(lp123
g2
(g3
tp124
Rp125
ag2
(g3
tp126
Rp127
ag2
(S'0.733'
p128
tp129
Rp130
aa(lp131
g2
(g3
tp132
Rp133
ag2
(g3
tp134
Rp135
ag2
(S'0.749'
p136
tp137
Rp138
aa(lp139
g2
(g3
tp140
Rp141
ag2
(g3
tp142
Rp143
ag2
(S'0.765'
p144
tp145
Rp146
aa(lp147
g2
(g3
tp148
Rp149
ag2
(g3
tp150
Rp151
ag2
(S'0.780'
p152
tp153
Rp154
aa(lp155
g2
(g3
tp156
Rp157
ag2
(g3
tp158
Rp159
ag2
(S'0.796'
p160
tp161
Rp162
aa(lp163
g2
(g3
tp164
Rp165
ag2
(g3
tp166
Rp167
ag2
(S'0.812'
p168
tp169
Rp170
aa(lp171
g2
(g3
tp172
Rp173
ag2
(g3
tp174
Rp175
ag2
(S'0.827'
p176
tp177
Rp178
aa(lp179
g2
(g3
tp180
Rp181
ag2
(g3
tp182
Rp183
ag2
(S'0.843'
p184
tp185
Rp186
aa(lp187
g2
(g3
tp188
Rp189
ag2
(g3
tp190
Rp191
ag2
(S'0.859'
p192
tp193
Rp194
aa(lp195
g2
(g3
tp196
Rp197
ag2
(g3
tp198
Rp199
ag2
(S'0.875'
p200
tp201
Rp202
aa(lp203
g2
(g3
tp204
Rp205
ag2
(g3
tp206
Rp207
ag2
(S'0.890'
p208
tp209
Rp210
aa(lp211
g2
(g3
tp212
Rp213
ag2
(g3
tp214
Rp215
ag2
(S'0.906'
p216
tp217
Rp218
aa(lp219
g2
(g3
tp220
Rp221
ag2
(g3
tp222
Rp223
ag2
(S'0.922'
p224
tp225
Rp226
aa(lp227
g2
(g3
tp228
Rp229
ag2
(g3
tp230
Rp231
ag2
(S'0.937'
p232
tp233
Rp234
aa(lp235
g2
(g3
tp236
Rp237
ag2
(g3
tp238
Rp239
ag2
(S'0.953'
p240
tp241
Rp242
aa(lp243
g2
(g3
tp244
Rp245
ag2
(g3
tp246
Rp247
ag2
(S'0.969'
p248
tp249
Rp250
aa(lp251
g2
(g3
tp252
Rp253
ag2
(g3
tp254
Rp255
ag2
(S'0.984'
p256
tp257
Rp258
aa(lp259
g2
(g3
tp260
Rp261
ag2
(g3
tp262
Rp263
ag2
(S'1'
p264
tp265
Rp266
aa(lp267
g2
(g3
tp268
Rp269
ag2
(S'0.0157'
p270
tp271
Rp272
ag2
(g264
tp273
Rp274
aa(lp275
g2
(g3
tp276
Rp277
ag2
(S'0.0314'
p278
tp279
Rp280
ag2
(g264
tp281
Rp282
aa(lp283
g2
(g3
tp284
Rp285
ag2
(S'0.0471'
p286
tp287
Rp288
ag2
(g264
tp289
Rp290
aa(lp291
g2
(g3
tp292
Rp293
ag2
(S'0.0627'
p294
tp295
Rp296
ag2
(g264
tp297
Rp298
aa(lp299
g2
(g3
tp300
Rp301
ag2
(S'0.0784'
p302
tp303
Rp304
ag2
(g264
tp305
Rp306
aa(lp307
g2
(g3
tp308
Rp309
ag2
(S'0.0941'
p310
tp311
Rp312
ag2
(g264
tp313
Rp314
aa(lp315
g2
(g3
tp316
Rp317
ag2
(S'0.110'
p318
tp319
Rp320
ag2
(g264
tp321
Rp322
aa(lp323
g2
(g3
tp324
Rp325
ag2
(S'0.125'
p326
tp327
Rp328
ag2
(g264
tp329
Rp330
aa(lp331
g2
(g3
tp332
Rp333
ag2
(S'0.141'
p334
tp335
Rp336
ag2
(g264
tp337
Rp338
aa(lp339
g2
(g3
tp340
Rp341
ag2
(S'0.157'
p342
tp343
Rp344
ag2
(g264
tp345
Rp346
aa(lp347
g2
(g3
tp348
Rp349
ag2
(S'0.173'
p350
tp351
Rp352
ag2
(g264
tp353
Rp354
aa(lp355
g2
(g3
tp356
Rp357
ag2
(S'0.188'
p358
tp359
Rp360
ag2
(g264
tp361
Rp362
aa(lp363
g2
(g3
tp364
Rp365
ag2
(S'0.204'
p366
tp367
Rp368
ag2
(g264
tp369
Rp370
aa(lp371
g2
(g3
tp372
Rp373
ag2
(S'0.220'
p374
tp375
Rp376
ag2
(g264
tp377
Rp378
aa(lp379
g2
(g3
tp380
Rp381
ag2
(S'0.235'
p382
tp383
Rp384
ag2
(g264
tp385
Rp386
aa(lp387
g2
(g3
tp388
Rp389
ag2
(S'0.251'
p390
tp391
Rp392
ag2
(g264
tp393
Rp394
aa(lp395
g2
(g3
tp396
Rp397
ag2
(S'0.267'
p398
tp399
Rp400
ag2
(g264
tp401
Rp402
aa(lp403
g2
(g3
tp404
Rp405
ag2
(S'0.282'
p406
tp407
Rp408
ag2
(g264
tp409
Rp410
aa(lp411
g2
(g3
tp412
Rp413
ag2
(S'0.298'
p414
tp415
Rp416
ag2
(g264
tp417
Rp418
aa(lp419
g2
(g3
tp420
Rp421
ag2
(S'0.314'
p422
tp423
Rp424
ag2
(g264
tp425
Rp426
aa(lp427
g2
(g3
tp428
Rp429
ag2
(S'0.329'
p430
tp431
Rp432
ag2
(g264
tp433
Rp434
aa(lp435
g2
(g3
tp436
Rp437
ag2
(S'0.345'
p438
tp439
Rp440
ag2
(g264
tp441
Rp442
aa(lp443
g2
(g3
tp444
Rp445
ag2
(S'0.361'
p446
tp447
Rp448
ag2
(g264
tp449
Rp450
aa(lp451
g2
(g3
tp452
Rp453
ag2
(S'0.376'
p454
tp455
Rp456
ag2
(g264
tp457
Rp458
aa(lp459
g2
(g3
tp460
Rp461
ag2
(S'0.392'
p462
tp463
Rp464
ag2
(g264
tp465
Rp466
aa(lp467
g2
(g3
tp468
Rp469
ag2
(S'0.408'
p470
tp471
Rp472
ag2
(g264
tp473
Rp474
aa(lp475
g2
(g3
tp476
Rp477
ag2
(S'0.424'
p478
tp479
Rp480
ag2
(g264
tp481
Rp482
aa(lp483
g2
(g3
tp484
Rp485
ag2
(S'0.439'
p486
tp487
Rp488
ag2
(g264
tp489
Rp490
aa(lp491
g2
(g3
tp492
Rp493
ag2
(S'0.455'
p494
tp495
Rp496
ag2
(g264
tp497
Rp498
aa(lp499
g2
(g3
tp500
Rp501
ag2
(S'0.471'
p502
tp503
Rp504
ag2
(g264
tp505
Rp506
aa(lp507
g2
(g3
tp508
Rp509
ag2
(S'0.486'
p510
tp511
Rp512
ag2
(g264
tp513
Rp514
aa(lp515
g2
(g3
tp516
Rp517
ag2
(S'0.502'
p518
tp519
Rp520
ag2
(g264
tp521
Rp522
aa(lp523
g2
(g3
tp524
Rp525
ag2
(S'0.518'
p526
tp527
Rp528
ag2
(g264
tp529
Rp530
aa(lp531
g2
(g3
tp532
Rp533
ag2
(S'0.533'
p534
tp535
Rp536
ag2
(g264
tp537
Rp538
aa(lp539
g2
(g3
tp540
Rp541
ag2
(S'0.549'
p542
tp543
Rp544
ag2
(g264
tp545
Rp546
aa(lp547
g2
(g3
tp548
Rp549
ag2
(S'0.565'
p550
tp551
Rp552
ag2
(g264
tp553
Rp554
aa(lp555
g2
(g3
tp556
Rp557
ag2
(S'0.580'
p558
tp559
Rp560
ag2
(g264
tp561
Rp562
aa(lp563
g2
(g3
tp564
Rp565
ag2
(S'0.596'
p566
tp567
Rp568
ag2
(g264
tp569
Rp570
aa(lp571
g2
(g3
tp572
Rp573
ag2
(S'0.612'
p574
tp575
Rp576
ag2
(g264
tp577
Rp578
aa(lp579
g2
(g3
tp580
Rp581
ag2
(S'0.627'
p582
tp583
Rp584
ag2
(g264
tp585
Rp586
aa(lp587
g2
(g3
tp588
Rp589
ag2
(S'0.643'
p590
tp591
Rp592
ag2
(g264
tp593
Rp594
aa(lp595
g2
(g3
tp596
Rp597
ag2
(S'0.659'
p598
tp599
Rp600
ag2
(g264
tp601
Rp602
aa(lp603
g2
(g3
tp604
Rp605
ag2
(S'0.675'
p606
tp607
Rp608
ag2
(g264
tp609
Rp610
aa(lp611
g2
(g3
tp612
Rp613
ag2
(S'0.690'
p614
tp615
Rp616
ag2
(g264
tp617
Rp618
aa(lp619
g2
(g3
tp620
Rp621
ag2
(S'0.706'
p622
tp623
Rp624
ag2
(g264
tp625
Rp626
aa(lp627
g2
(g3
tp628
Rp629
ag2
(S'0.722'
p630
tp631
Rp632
ag2
(g264
tp633
Rp634
aa(lp635
g2
(g3
tp636
Rp637
ag2
(S'0.737'
p638
tp639
Rp640
ag2
(g264
tp641
Rp642
aa(lp643
g2
(g3
tp644
Rp645
ag2
(S'0.753'
p646
tp647
Rp648
ag2
(g264
tp649
Rp650
aa(lp651
g2
(g3
tp652
Rp653
ag2
(S'0.769'
p654
tp655
Rp656
ag2
(g264
tp657
Rp658
aa(lp659
g2
(g3
tp660
Rp661
ag2
(S'0.784'
p662
tp663
Rp664
ag2
(g264
tp665
Rp666
aa(lp667
g2
(g3
tp668
Rp669
ag2
(S'0.8'
p670
tp671
Rp672
ag2
(g264
tp673
Rp674
aa(lp675
g2
(g3
tp676
Rp677
ag2
(S'0.816'
p678
tp679
Rp680
ag2
(g264
tp681
Rp682
aa(lp683
g2
(g3
tp684
Rp685
ag2
(S'0.831'
p686
tp687
Rp688
ag2
(g264
tp689
Rp690
aa(lp691
g2
(g3
tp692
Rp693
ag2
(S'0.847'
p694
tp695
Rp696
ag2
(g264
tp697
Rp698
aa(lp699
g2
(g3
tp700
Rp701
ag2
(S'0.863'
p702
tp703
Rp704
ag2
(g264
tp705
Rp706
aa(lp707
g2
(g3
tp708
Rp709
ag2
(S'0.878'
p710
tp711
Rp712
ag2
(g264
tp713
Rp714
aa(lp715
g2
(g3
tp716
Rp717
ag2
(S'0.894'
p718
tp719
Rp720
ag2
(g264
tp721
Rp722
aa(lp723
g2
(g3
tp724
Rp725
ag2
(S'0.910'
p726
tp727
Rp728
ag2
(g264
tp729
Rp730
aa(lp731
g2
(g3
tp732
Rp733
ag2
(S'0.925'
p734
tp735
Rp736
ag2
(g264
tp737
Rp738
aa(lp739
g2
(g3
tp740
Rp741
ag2
(S'0.941'
p742
tp743
Rp744
ag2
(g264
tp745
Rp746
aa(lp747
g2
(g3
tp748
Rp749
ag2
(S'0.957'
p750
tp751
Rp752
ag2
(g264
tp753
Rp754
aa(lp755
g2
(g3
tp756
Rp757
ag2
(S'0.973'
p758
tp759
Rp760
ag2
(g264
tp761
Rp762
aa(lp763
g2
(g3
tp764
Rp765
ag2
(S'0.988'
p766
tp767
Rp768
ag2
(g264
tp769
Rp770
aa(lp771
g2
(g3
tp772
Rp773
ag2
(g264
tp774
Rp775
ag2
(g264
tp776
Rp777
aa(lp778
g2
(S'0.0157'
p779
tp780
Rp781
ag2
(g264
tp782
Rp783
ag2
(S'0.984'
p784
tp785
Rp786
aa(lp787
g2
(S'0.0314'
p788
tp789
Rp790
ag2
(g264
tp791
Rp792
ag2
(S'0.969'
p793
tp794
Rp795
aa(lp796
g2
(S'0.0471'
p797
tp798
Rp799
ag2
(g264
tp800
Rp801
ag2
(S'0.953'
p802
tp803
Rp804
aa(lp805
g2
(S'0.0627'
p806
tp807
Rp808
ag2
(g264
tp809
Rp810
ag2
(S'0.937'
p811
tp812
Rp813
aa(lp814
g2
(S'0.0784'
p815
tp816
Rp817
ag2
(g264
tp818
Rp819
ag2
(S'0.922'
p820
tp821
Rp822
aa(lp823
g2
(S'0.0941'
p824
tp825
Rp826
ag2
(g264
tp827
Rp828
ag2
(S'0.906'
p829
tp830
Rp831
aa(lp832
g2
(S'0.110'
p833
tp834
Rp835
ag2
(g264
tp836
Rp837
ag2
(S'0.890'
p838
tp839
Rp840
aa(lp841
g2
(S'0.125'
p842
tp843
Rp844
ag2
(g264
tp845
Rp846
ag2
(S'0.875'
p847
tp848
Rp849
aa(lp850
g2
(S'0.141'
p851
tp852
Rp853
ag2
(g264
tp854
Rp855
ag2
(S'0.859'
p856
tp857
Rp858
aa(lp859
g2
(S'0.157'
p860
tp861
Rp862
ag2
(g264
tp863
Rp864
ag2
(S'0.843'
p865
tp866
Rp867
aa(lp868
g2
(S'0.173'
p869
tp870
Rp871
ag2
(g264
tp872
Rp873
ag2
(S'0.827'
p874
tp875
Rp876
aa(lp877
g2
(S'0.188'
p878
tp879
Rp880
ag2
(g264
tp881
Rp882
ag2
(S'0.812'
p883
tp884
Rp885
aa(lp886
g2
(S'0.204'
p887
tp888
Rp889
ag2
(g264
tp890
Rp891
ag2
(S'0.796'
p892
tp893
Rp894
aa(lp895
g2
(S'0.220'
p896
tp897
Rp898
ag2
(g264
tp899
Rp900
ag2
(S'0.780'
p901
tp902
Rp903
aa(lp904
g2
(S'0.235'
p905
tp906
Rp907
ag2
(g264
tp908
Rp909
ag2
(S'0.765'
p910
tp911
Rp912
aa(lp913
g2
(S'0.251'
p914
tp915
Rp916
ag2
(g264
tp917
Rp918
ag2
(S'0.749'
p919
tp920
Rp921
aa(lp922
g2
(S'0.267'
p923
tp924
Rp925
ag2
(g264
tp926
Rp927
ag2
(S'0.733'
p928
tp929
Rp930
aa(lp931
g2
(S'0.282'
p932
tp933
Rp934
ag2
(g264
tp935
Rp936
ag2
(S'0.718'
p937
tp938
Rp939
aa(lp940
g2
(S'0.298'
p941
tp942
Rp943
ag2
(g264
tp944
Rp945
ag2
(S'0.702'
p946
tp947
Rp948
aa(lp949
g2
(S'0.314'
p950
tp951
Rp952
ag2
(g264
tp953
Rp954
ag2
(S'0.686'
p955
tp956
Rp957
aa(lp958
g2
(S'0.329'
p959
tp960
Rp961
ag2
(g264
tp962
Rp963
ag2
(S'0.671'
p964
tp965
Rp966
aa(lp967
g2
(S'0.345'
p968
tp969
Rp970
ag2
(g264
tp971
Rp972
ag2
(S'0.655'
p973
tp974
Rp975
aa(lp976
g2
(S'0.361'
p977
tp978
Rp979
ag2
(g264
tp980
Rp981
ag2
(S'0.639'
p982
tp983
Rp984
aa(lp985
g2
(S'0.376'
p986
tp987
Rp988
ag2
(g264
tp989
Rp990
ag2
(S'0.624'
p991
tp992
Rp993
aa(lp994
g2
(S'0.392'
p995
tp996
Rp997
ag2
(g264
tp998
Rp999
ag2
(S'0.608'
p1000
tp1001
Rp1002
aa(lp1003
g2
(S'0.408'
p1004
tp1005
Rp1006
ag2
(g264
tp1007
Rp1008
ag2
(S'0.592'
p1009
tp1010
Rp1011
aa(lp1012
g2
(S'0.424'
p1013
tp1014
Rp1015
ag2
(g264
tp1016
Rp1017
ag2
(S'0.576'
p1018
tp1019
Rp1020
aa(lp1021
g2
(S'0.439'
p1022
tp1023
Rp1024
ag2
(g264
tp1025
Rp1026
ag2
(S'0.561'
p1027
tp1028
Rp1029
aa(lp1030
g2
(S'0.455'
p1031
tp1032
Rp1033
ag2
(g264
tp1034
Rp1035
ag2
(S'0.545'
p1036
tp1037
Rp1038
aa(lp1039
g2
(S'0.471'
p1040
tp1041
Rp1042
ag2
(g264
tp1043
Rp1044
ag2
(S'0.529'
p1045
tp1046
Rp1047
aa(lp1048
g2
(S'0.486'
p1049
tp1050
Rp1051
ag2
(g264
tp1052
Rp1053
ag2
(S'0.514'
p1054
tp1055
Rp1056
aa(lp1057
g2
(S'0.502'
p1058
tp1059
Rp1060
ag2
(g264
tp1061
Rp1062
ag2
(S'0.498'
p1063
tp1064
Rp1065
aa(lp1066
g2
(S'0.518'
p1067
tp1068
Rp1069
ag2
(g264
tp1070
Rp1071
ag2
(S'0.482'
p1072
tp1073
Rp1074
aa(lp1075
g2
(S'0.533'
p1076
tp1077
Rp1078
ag2
(g264
tp1079
Rp1080
ag2
(S'0.467'
p1081
tp1082
Rp1083
aa(lp1084
g2
(S'0.549'
p1085
tp1086
Rp1087
ag2
(g264
tp1088
Rp1089
ag2
(S'0.451'
p1090
tp1091
Rp1092
aa(lp1093
g2
(S'0.565'
p1094
tp1095
Rp1096
ag2
(g264
tp1097
Rp1098
ag2
(S'0.435'
p1099
tp1100
Rp1101
aa(lp1102
g2
(S'0.580'
p1103
tp1104
Rp1105
ag2
(g264
tp1106
Rp1107
ag2
(S'0.420'
p1108
tp1109
Rp1110
aa(lp1111
g2
(S'0.596'
p1112
tp1113
Rp1114
ag2
(g264
tp1115
Rp1116
ag2
(S'0.404'
p1117
tp1118
Rp1119
aa(lp1120
g2
(S'0.612'
p1121
tp1122
Rp1123
ag2
(g264
tp1124
Rp1125
ag2
(S'0.388'
p1126
tp1127
Rp1128
aa(lp1129
g2
(S'0.627'
p1130
tp1131
Rp1132
ag2
(g264
tp1133
Rp1134
ag2
(S'0.373'
p1135
tp1136
Rp1137
aa(lp1138
g2
(S'0.643'
p1139
tp1140
Rp1141
ag2
(g264
tp1142
Rp1143
ag2
(S'0.357'
p1144
tp1145
Rp1146
aa(lp1147
g2
(S'0.659'
p1148
tp1149
Rp1150
ag2
(g264
tp1151
Rp1152
ag2
(S'0.341'
p1153
tp1154
Rp1155
aa(lp1156
g2
(S'0.675'
p1157
tp1158
Rp1159
ag2
(g264
tp1160
Rp1161
ag2
(S'0.325'
p1162
tp1163
Rp1164
aa(lp1165
g2
(S'0.690'
p1166
tp1167
Rp1168
ag2
(g264
tp1169
Rp1170
ag2
(S'0.310'
p1171
tp1172
Rp1173
aa(lp1174
g2
(S'0.706'
p1175
tp1176
Rp1177
ag2
(g264
tp1178
Rp1179
ag2
(S'0.294'
p1180
tp1181
Rp1182
aa(lp1183
g2
(S'0.722'
p1184
tp1185
Rp1186
ag2
(g264
tp1187
Rp1188
ag2
(S'0.278'
p1189
tp1190
Rp1191
aa(lp1192
g2
(S'0.737'
p1193
tp1194
Rp1195
ag2
(g264
tp1196
Rp1197
ag2
(S'0.263'
p1198
tp1199
Rp1200
aa(lp1201
g2
(S'0.753'
p1202
tp1203
Rp1204
ag2
(g264
tp1205
Rp1206
ag2
(S'0.247'
p1207
tp1208
Rp1209
aa(lp1210
g2
(S'0.769'
p1211
tp1212
Rp1213
ag2
(g264
tp1214
Rp1215
ag2
(S'0.231'
p1216
tp1217
Rp1218
aa(lp1219
g2
(S'0.784'
p1220
tp1221
Rp1222
ag2
(g264
tp1223
Rp1224
ag2
(S'0.216'
p1225
tp1226
Rp1227
aa(lp1228
g2
(S'0.8'
p1229
tp1230
Rp1231
ag2
(g264
tp1232
Rp1233
ag2
(S'0.2'
p1234
tp1235
Rp1236
aa(lp1237
g2
(S'0.816'
p1238
tp1239
Rp1240
ag2
(g264
tp1241
Rp1242
ag2
(S'0.184'
p1243
tp1244
Rp1245
aa(lp1246
g2
(S'0.831'
p1247
tp1248
Rp1249
ag2
(g264
tp1250
Rp1251
ag2
(S'0.169'
p1252
tp1253
Rp1254
aa(lp1255
g2
(S'0.847'
p1256
tp1257
Rp1258
ag2
(g264
tp1259
Rp1260
ag2
(S'0.153'
p1261
tp1262
Rp1263
aa(lp1264
g2
(S'0.863'
p1265
tp1266
Rp1267
ag2
(g264
tp1268
Rp1269
ag2
(S'0.137'
p1270
tp1271
Rp1272
aa(lp1273
g2
(S'0.878'
p1274
tp1275
Rp1276
ag2
(g264
tp1277
Rp1278
ag2
(S'0.122'
p1279
tp1280
Rp1281
aa(lp1282
g2
(S'0.894'
p1283
tp1284
Rp1285
ag2
(g264
tp1286
Rp1287
ag2
(S'0.106'
p1288
tp1289
Rp1290
aa(lp1291
g2
(S'0.910'
p1292
tp1293
Rp1294
ag2
(g264
tp1295
Rp1296
ag2
(S'0.0902'
p1297
tp1298
Rp1299
aa(lp1300
g2
(S'0.925'
p1301
tp1302
Rp1303
ag2
(g264
tp1304
Rp1305
ag2
(S'0.0745'
p1306
tp1307
Rp1308
aa(lp1309
g2
(S'0.941'
p1310
tp1311
Rp1312
ag2
(g264
tp1313
Rp1314
ag2
(S'0.0588'
p1315
tp1316
Rp1317
aa(lp1318
g2
(S'0.957'
p1319
tp1320
Rp1321
ag2
(g264
tp1322
Rp1323
ag2
(S'0.0431'
p1324
tp1325
Rp1326
aa(lp1327
g2
(S'0.973'
p1328
tp1329
Rp1330
ag2
(g264
tp1331
Rp1332
ag2
(S'0.0275'
p1333
tp1334
Rp1335
aa(lp1336
g2
(S'0.988'
p1337
tp1338
Rp1339
ag2
(g264
tp1340
Rp1341
ag2
(S'0.0118'
p1342
tp1343
Rp1344
aa(lp1345
g2
(g264
tp1346
Rp1347
ag2
(g264
tp1348
Rp1349
ag2
(g3
tp1350
Rp1351
aa(lp1352
g2
(g264
tp1353
Rp1354
ag2
(S'0.984'
p1355
tp1356
Rp1357
ag2
(g3
tp1358
Rp1359
aa(lp1360
g2
(g264
tp1361
Rp1362
ag2
(S'0.969'
p1363
tp1364
Rp1365
ag2
(g3
tp1366
Rp1367
aa(lp1368
g2
(g264
tp1369
Rp1370
ag2
(S'0.953'
p1371
tp1372
Rp1373
ag2
(g3
tp1374
Rp1375
aa(lp1376
g2
(g264
tp1377
Rp1378
ag2
(S'0.937'
p1379
tp1380
Rp1381
ag2
(g3
tp1382
Rp1383
aa(lp1384
g2
(g264
tp1385
Rp1386
ag2
(S'0.922'
p1387
tp1388
Rp1389
ag2
(g3
tp1390
Rp1391
aa(lp1392
g2
(g264
tp1393
Rp1394
ag2
(S'0.906'
p1395
tp1396
Rp1397
ag2
(g3
tp1398
Rp1399
aa(lp1400
g2
(g264
tp1401
Rp1402
ag2
(S'0.890'
p1403
tp1404
Rp1405
ag2
(g3
tp1406
Rp1407
aa(lp1408
g2
(g264
tp1409
Rp1410
ag2
(S'0.875'
p1411
tp1412
Rp1413
ag2
(g3
tp1414
Rp1415
aa(lp1416
g2
(g264
tp1417
Rp1418
ag2
(S'0.859'
p1419
tp1420
Rp1421
ag2
(g3
tp1422
Rp1423
aa(lp1424
g2
(g264
tp1425
Rp1426
ag2
(S'0.843'
p1427
tp1428
Rp1429
ag2
(g3
tp1430
Rp1431
aa(lp1432
g2
(g264
tp1433
Rp1434
ag2
(S'0.827'
p1435
tp1436
Rp1437
ag2
(g3
tp1438
Rp1439
aa(lp1440
g2
(g264
tp1441
Rp1442
ag2
(S'0.812'
p1443
tp1444
Rp1445
ag2
(g3
tp1446
Rp1447
aa(lp1448
g2
(g264
tp1449
Rp1450
ag2
(S'0.796'
p1451
tp1452
Rp1453
ag2
(g3
tp1454
Rp1455
aa(lp1456
g2
(g264
tp1457
Rp1458
ag2
(S'0.780'
p1459
tp1460
Rp1461
ag2
(g3
tp1462
Rp1463
aa(lp1464
g2
(g264
tp1465
Rp1466
ag2
(S'0.765'
p1467
tp1468
Rp1469
ag2
(g3
tp1470
Rp1471
aa(lp1472
g2
(g264
tp1473
Rp1474
ag2
(S'0.749'
p1475
tp1476
Rp1477
ag2
(g3
tp1478
Rp1479
aa(lp1480
g2
(g264
tp1481
Rp1482
ag2
(S'0.733'
p1483
tp1484
Rp1485
ag2
(g3
tp1486
Rp1487
aa(lp1488
g2
(g264
tp1489
Rp1490
ag2
(S'0.718'
p1491
tp1492
Rp1493
ag2
(g3
tp1494
Rp1495
aa(lp1496
g2
(g264
tp1497
Rp1498
ag2
(S'0.702'
p1499
tp1500
Rp1501
ag2
(g3
tp1502
Rp1503
aa(lp1504
g2
(g264
tp1505
Rp1506
ag2
(S'0.686'
p1507
tp1508
Rp1509
ag2
(g3
tp1510
Rp1511
aa(lp1512
g2
(g264
tp1513
Rp1514
ag2
(S'0.671'
p1515
tp1516
Rp1517
ag2
(g3
tp1518
Rp1519
aa(lp1520
g2
(g264
tp1521
Rp1522
ag2
(S'0.655'
p1523
tp1524
Rp1525
ag2
(g3
tp1526
Rp1527
aa(lp1528
g2
(g264
tp1529
Rp1530
ag2
(S'0.639'
p1531
tp1532
Rp1533
ag2
(g3
tp1534
Rp1535
aa(lp1536
g2
(g264
tp1537
Rp1538
ag2
(S'0.624'
p1539
tp1540
Rp1541
ag2
(g3
tp1542
Rp1543
aa(lp1544
g2
(g264
tp1545
Rp1546
ag2
(S'0.608'
p1547
tp1548
Rp1549
ag2
(g3
tp1550
Rp1551
aa(lp1552
g2
(g264
tp1553
Rp1554
ag2
(S'0.592'
p1555
tp1556
Rp1557
ag2
(g3
tp1558
Rp1559
aa(lp1560
g2
(g264
tp1561
Rp1562
ag2
(S'0.576'
p1563
tp1564
Rp1565
ag2
(g3
tp1566
Rp1567
aa(lp1568
g2
(g264
tp1569
Rp1570
ag2
(S'0.561'
p1571
tp1572
Rp1573
ag2
(g3
tp1574
Rp1575
aa(lp1576
g2
(g264
tp1577
Rp1578
ag2
(S'0.545'
p1579
tp1580
Rp1581
ag2
(g3
tp1582
Rp1583
aa(lp1584
g2
(g264
tp1585
Rp1586
ag2
(S'0.529'
p1587
tp1588
Rp1589
ag2
(g3
tp1590
Rp1591
aa(lp1592
g2
(g264
tp1593
Rp1594
ag2
(S'0.514'
p1595
tp1596
Rp1597
ag2
(g3
tp1598
Rp1599
aa(lp1600
g2
(g264
tp1601
Rp1602
ag2
(S'0.498'
p1603
tp1604
Rp1605
ag2
(g3
tp1606
Rp1607
aa(lp1608
g2
(g264
tp1609
Rp1610
ag2
(S'0.482'
p1611
tp1612
Rp1613
ag2
(g3
tp1614
Rp1615
aa(lp1616
g2
(g264
tp1617
Rp1618
ag2
(S'0.467'
p1619
tp1620
Rp1621
ag2
(g3
tp1622
Rp1623
aa(lp1624
g2
(g264
tp1625
Rp1626
ag2
(S'0.451'
p1627
tp1628
Rp1629
ag2
(g3
tp1630
Rp1631
aa(lp1632
g2
(g264
tp1633
Rp1634
ag2
(S'0.435'
p1635
tp1636
Rp1637
ag2
(g3
tp1638
Rp1639
aa(lp1640
g2
(g264
tp1641
Rp1642
ag2
(S'0.420'
p1643
tp1644
Rp1645
ag2
(g3
tp1646
Rp1647
aa(lp1648
g2
(g264
tp1649
Rp1650
ag2
(S'0.404'
p1651
tp1652
Rp1653
ag2
(g3
tp1654
Rp1655
aa(lp1656
g2
(g264
tp1657
Rp1658
ag2
(S'0.388'
p1659
tp1660
Rp1661
ag2
(g3
tp1662
Rp1663
aa(lp1664
g2
(g264
tp1665
Rp1666
ag2
(S'0.373'
p1667
tp1668
Rp1669
ag2
(g3
tp1670
Rp1671
aa(lp1672
g2
(g264
tp1673
Rp1674
ag2
(S'0.357'
p1675
tp1676
Rp1677
ag2
(g3
tp1678
Rp1679
aa(lp1680
g2
(g264
tp1681
Rp1682
ag2
(S'0.341'
p1683
tp1684
Rp1685
ag2
(g3
tp1686
Rp1687
aa(lp1688
g2
(g264
tp1689
Rp1690
ag2
(S'0.325'
p1691
tp1692
Rp1693
ag2
(g3
tp1694
Rp1695
aa(lp1696
g2
(g264
tp1697
Rp1698
ag2
(S'0.310'
p1699
tp1700
Rp1701
ag2
(g3
tp1702
Rp1703
aa(lp1704
g2
(g264
tp1705
Rp1706
ag2
(S'0.294'
p1707
tp1708
Rp1709
ag2
(g3
tp1710
Rp1711
aa(lp1712
g2
(g264
tp1713
Rp1714
ag2
(S'0.278'
p1715
tp1716
Rp1717
ag2
(g3
tp1718
Rp1719
aa(lp1720
g2
(g264
tp1721
Rp1722
ag2
(S'0.263'
p1723
tp1724
Rp1725
ag2
(g3
tp1726
Rp1727
aa(lp1728
g2
(g264
tp1729
Rp1730
ag2
(S'0.247'
p1731
tp1732
Rp1733
ag2
(g3
tp1734
Rp1735
aa(lp1736
g2
(g264
tp1737
Rp1738
ag2
(S'0.231'
p1739
tp1740
Rp1741
ag2
(g3
tp1742
Rp1743
aa(lp1744
g2
(g264
tp1745
Rp1746
ag2
(S'0.216'
p1747
tp1748
Rp1749
ag2
(g3
tp1750
Rp1751
aa(lp1752
g2
(g264
tp1753
Rp1754
ag2
(S'0.2'
p1755
tp1756
Rp1757
ag2
(g3
tp1758
Rp1759
aa(lp1760
g2
(g264
tp1761
Rp1762
ag2
(S'0.184'
p1763
tp1764
Rp1765
ag2
(g3
tp1766
Rp1767
aa(lp1768
g2
(g264
tp1769
Rp1770
ag2
(S'0.169'
p1771
tp1772
Rp1773
ag2
(g3
tp1774
Rp1775
aa(lp1776
g2
(g264
tp1777
Rp1778
ag2
(S'0.153'
p1779
tp1780
Rp1781
ag2
(g3
tp1782
Rp1783
aa(lp1784
g2
(g264
tp1785
Rp1786
ag2
(S'0.137'
p1787
tp1788
Rp1789
ag2
(g3
tp1790
Rp1791
aa(lp1792
g2
(g264
tp1793
Rp1794
ag2
(S'0.122'
p1795
tp1796
Rp1797
ag2
(g3
tp1798
Rp1799
aa(lp1800
g2
(g264
tp1801
Rp1802
ag2
(S'0.106'
p1803
tp1804
Rp1805
ag2
(g3
tp1806
Rp1807
aa(lp1808
g2
(g264
tp1809
Rp1810
ag2
(S'0.0902'
p1811
tp1812
Rp1813
ag2
(g3
tp1814
Rp1815
aa(lp1816
g2
(g264
tp1817
Rp1818
ag2
(S'0.0745'
p1819
tp1820
Rp1821
ag2
(g3
tp1822
Rp1823
aa(lp1824
g2
(g264
tp1825
Rp1826
ag2
(S'0.0588'
p1827
tp1828
Rp1829
ag2
(g3
tp1830
Rp1831
aa(lp1832
g2
(g264
tp1833
Rp1834
ag2
(S'0.0431'
p1835
tp1836
Rp1837
ag2
(g3
tp1838
Rp1839
aa(lp1840
g2
(g264
tp1841
Rp1842
ag2
(S'0.0275'
p1843
tp1844
Rp1845
ag2
(g3
tp1846
Rp1847
aa(lp1848
g2
(g264
tp1849
Rp1850
ag2
(S'0.0118'
p1851
tp1852
Rp1853
ag2
(g3
tp1854
Rp1855
aa(lp1856
g2
(g264
tp1857
Rp1858
ag2
(g3
tp1859
Rp1860
ag2
(g3
tp1861
Rp1862
aa(lp1863
g2
(S'0.984'
p1864
tp1865
Rp1866
ag2
(g3
tp1867
Rp1868
ag2
(g3
tp1869
Rp1870
aa(lp1871
g2
(S'0.969'
p1872
tp1873
Rp1874
ag2
(g3
tp1875
Rp1876
ag2
(g3
tp1877
Rp1878
aa(lp1879
g2
(S'0.953'
p1880
tp1881
Rp1882
ag2
(g3
tp1883
Rp1884
ag2
(g3
tp1885
Rp1886
aa(lp1887
g2
(S'0.937'
p1888
tp1889
Rp1890
ag2
(g3
tp1891
Rp1892
ag2
(g3
tp1893
Rp1894
aa(lp1895
g2
(S'0.922'
p1896
tp1897
Rp1898
ag2
(g3
tp1899
Rp1900
ag2
(g3
tp1901
Rp1902
aa(lp1903
g2
(S'0.906'
p1904
tp1905
Rp1906
ag2
(g3
tp1907
Rp1908
ag2
(g3
tp1909
Rp1910
aa(lp1911
g2
(S'0.890'
p1912
tp1913
Rp1914
ag2
(g3
tp1915
Rp1916
ag2
(g3
tp1917
Rp1918
aa(lp1919
g2
(S'0.875'
p1920
tp1921
Rp1922
ag2
(g3
tp1923
Rp1924
ag2
(g3
tp1925
Rp1926
aa(lp1927
g2
(S'0.859'
p1928
tp1929
Rp1930
ag2
(g3
tp1931
Rp1932
ag2
(g3
tp1933
Rp1934
aa(lp1935
g2
(S'0.843'
p1936
tp1937
Rp1938
ag2
(g3
tp1939
Rp1940
ag2
(g3
tp1941
Rp1942
aa(lp1943
g2
(S'0.827'
p1944
tp1945
Rp1946
ag2
(g3
tp1947
Rp1948
ag2
(g3
tp1949
Rp1950
aa(lp1951
g2
(S'0.812'
p1952
tp1953
Rp1954
ag2
(g3
tp1955
Rp1956
ag2
(g3
tp1957
Rp1958
aa(lp1959
g2
(S'0.796'
p1960
tp1961
Rp1962
ag2
(g3
tp1963
Rp1964
ag2
(g3
tp1965
Rp1966
aa(lp1967
g2
(S'0.780'
p1968
tp1969
Rp1970
ag2
(g3
tp1971
Rp1972
ag2
(g3
tp1973
Rp1974
aa(lp1975
g2
(S'0.765'
p1976
tp1977
Rp1978
ag2
(g3
tp1979
Rp1980
ag2
(g3
tp1981
Rp1982
aa(lp1983
g2
(S'0.749'
p1984
tp1985
Rp1986
ag2
(g3
tp1987
Rp1988
ag2
(g3
tp1989
Rp1990
aa(lp1991
g2
(S'0.733'
p1992
tp1993
Rp1994
ag2
(g3
tp1995
Rp1996
ag2
(g3
tp1997
Rp1998
aa(lp1999
g2
(S'0.718'
p2000
tp2001
Rp2002
ag2
(g3
tp2003
Rp2004
ag2
(g3
tp2005
Rp2006
aa(lp2007
g2
(S'0.702'
p2008
tp2009
Rp2010
ag2
(g3
tp2011
Rp2012
ag2
(g3
tp2013
Rp2014
aa(lp2015
g2
(S'0.686'
p2016
tp2017
Rp2018
ag2
(g3
tp2019
Rp2020
ag2
(g3
tp2021
Rp2022
aa(lp2023
g2
(S'0.671'
p2024
tp2025
Rp2026
ag2
(g3
tp2027
Rp2028
ag2
(g3
tp2029
Rp2030
aa(lp2031
g2
(S'0.655'
p2032
tp2033
Rp2034
ag2
(g3
tp2035
Rp2036
ag2
(g3
tp2037
Rp2038
aa(lp2039
g2
(S'0.639'
p2040
tp2041
Rp2042
ag2
(g3
tp2043
Rp2044
ag2
(g3
tp2045
Rp2046
aa(lp2047
g2
(S'0.624'
p2048
tp2049
Rp2050
ag2
(g3
tp2051
Rp2052
ag2
(g3
tp2053
Rp2054
aa(lp2055
g2
(S'0.608'
p2056
tp2057
Rp2058
ag2
(g3
tp2059
Rp2060
ag2
(g3
tp2061
Rp2062
aa(lp2063
g2
(S'0.592'
p2064
tp2065
Rp2066
ag2
(g3
tp2067
Rp2068
ag2
(g3
tp2069
Rp2070
aa(lp2071
g2
(S'0.576'
p2072
tp2073
Rp2074
ag2
(g3
tp2075
Rp2076
ag2
(g3
tp2077
Rp2078
aa(lp2079
g2
(S'0.561'
p2080
tp2081
Rp2082
ag2
(g3
tp2083
Rp2084
ag2
(g3
tp2085
Rp2086
aa(lp2087
g2
(S'0.545'
p2088
tp2089
Rp2090
ag2
(g3
tp2091
Rp2092
ag2
(g3
tp2093
Rp2094
aa(lp2095
g2
(S'0.529'
p2096
tp2097
Rp2098
ag2
(g3
tp2099
Rp2100
ag2
(g3
tp2101
Rp2102
aa(lp2103
g2
(S'0.514'
p2104
tp2105
Rp2106
ag2
(g3
tp2107
Rp2108
ag2
(g3
tp2109
Rp2110
aa.