(lp0
(lp1
cdecimal
Decimal
p2
(S'0'
p3
tp4
Rp5
ag2
(g3
tp6
Rp7
ag2
(g3
tp8
Rp9
aa(lp10
g2
(g3
tp11
Rp12
ag2
(g3
tp13
Rp14
ag2
(S'0.0157'
p15
tp16
Rp17
aa(lp18
g2
(g3
tp19
Rp20
ag2
(g3
tp21
Rp22
ag2
(S'0.0314'
p23
tp24
Rp25
aa(lp26
g2
(g3
tp27
Rp28
ag2
(g3
tp29
Rp30
ag2
(S'0.0471'
p31
tp32
Rp33
aa(lp34
g2
(g3
tp35
Rp36
ag2
(g3
tp37
Rp38
ag2
(S'0.0627'
p39
tp40
Rp41
aa(lp42
g2
(g3
tp43
Rp44
ag2
(g3
tp45
Rp46
ag2
(S'0.0784'
p47
tp48
Rp49
aa(lp50
g2
(g3
tp51
Rp52
ag2
(g3
tp53
Rp54
ag2
(S'0.0941'
p55
tp56
Rp57
aa(lp58
g2
(g3
tp59
Rp60
ag2
(g3
tp61
Rp62
ag2
(S'0.110'
p63
tp64
Rp65
aa(lp66
g2
(g3
tp67
Rp68
ag2
(g3
tp69
Rp70
ag2
(S'0.125'
p71
tp72
Rp73
aa(lp74
g2
(g3
tp75
Rp76
ag2
(g3
tp77
Rp78
ag2
(S'0.141'
p79
tp80
Rp81
aa(lp82
g2
(g3
tp83
Rp84
ag2
(g3
tp85
Rp86
ag2
(S'0.161'
p87
tp88
Rp89
aa(lp90
g2
(g3
tp91
Rp92
ag2
(g3
tp93
Rp94
ag2
(S'0.176'
p95
tp96
Rp97
aa(lp98
g2
(g3
tp99
Rp100
ag2
(g3
tp101
Rp102
ag2
(S'0.192'
p103
tp104
Rp105
aa(lp106
g2
(g3
tp107
Rp108
ag2
(g3
tp109
Rp110
ag2
(S'0.208'
p111
tp112
Rp113
aa(lp114
g2
(g3
tp115
Rp116
ag2
(g3
tp117
Rp118
ag2
(S'0.224'
p119
tp120
Rp121
aa(lp122
g2
(g3
tp123
Rp124
ag2
(g3
tp125
Rp126
ag2
(S'0.239'
p127
tp128
Rp129
aa(lp130
g2
(g3
tp131
Rp132
ag2
(g3
tp133
Rp134
ag2
(S'0.255'
p135
tp136
Rp137
aa(lp138
g2
(S'0.00784'
p139
tp140
Rp141
ag2
(g3
tp142
Rp143
ag2
(S'0.271'
p144
tp145
Rp146
aa(lp147
g2
(S'0.0157'
p148
tp149
Rp150
ag2
(g3
tp151
Rp152
ag2
(S'0.286'
p153
tp154
Rp155
aa(lp156
g2
(S'0.0235'
p157
tp158
Rp159
ag2
(g3
tp160
Rp161
ag2
(S'0.302'
p162
tp163
Rp164
aa(lp165
g2
(S'0.0314'
p166
tp167
Rp168
ag2
(g3
tp169
Rp170
ag2
(S'0.318'
p171
tp172
Rp173
aa(lp174
g2
(S'0.0392'
p175
tp176
Rp177
ag2
(g3
tp178
Rp179
ag2
(S'0.333'
p180
tp181
Rp182
aa(lp183
g2
(S'0.0471'
p184
tp185
Rp186
ag2
(g3
tp187
Rp188
ag2
(S'0.349'
p189
tp190
Rp191
aa(lp192
g2
(S'0.0549'
p193
tp194
Rp195
ag2
(g3
tp196
Rp197
ag2
(S'0.365'
p198
tp199
Rp200
aa(lp201
g2
(S'0.0627'
p202
tp203
Rp204
ag2
(g3
tp205
Rp206
ag2
(S'0.380'
p207
tp208
Rp209
aa(lp210
g2
(S'0.0706'
p211
tp212
Rp213
ag2
(g3
tp214
Rp215
ag2
(S'0.396'
p216
tp217
Rp218
aa(lp219
g2
(S'0.0784'
p220
tp221
Rp222
ag2
(g3
tp223
Rp224
ag2
(S'0.412'
p225
tp226
Rp227
aa(lp228
g2
(S'0.0863'
p229
tp230
Rp231
ag2
(g3
tp232
Rp233
ag2
(S'0.427'
p234
tp235
Rp236
aa(lp237
g2
(S'0.0941'
p238
tp239
Rp240
ag2
(g3
tp241
Rp242
ag2
(S'0.447'
p243
tp244
Rp245
aa(lp246
g2
(S'0.102'
p247
tp248
Rp249
ag2
(g3
tp250
Rp251
ag2
(S'0.463'
p252
tp253
Rp254
aa(lp255
g2
(S'0.110'
p256
tp257
Rp258
ag2
(g3
tp259
Rp260
ag2
(S'0.478'
p261
tp262
Rp263
aa(lp264
g2
(S'0.118'
p265
tp266
Rp267
ag2
(g3
tp268
Rp269
ag2
(S'0.494'
p270
tp271
Rp272
aa(lp273
g2
(S'0.125'
p274
tp275
Rp276
ag2
(g3
tp277
Rp278
ag2
(S'0.510'
p279
tp280
Rp281
aa(lp282
g2
(S'0.133'
p283
tp284
Rp285
ag2
(g3
tp286
Rp287
ag2
(S'0.525'
p288
tp289
Rp290
aa(lp291
g2
(S'0.141'
p292
tp293
Rp294
ag2
(g3
tp295
Rp296
ag2
(S'0.541'
p297
tp298
Rp299
aa(lp300
g2
(S'0.149'
p301
tp302
Rp303
ag2
(g3
tp304
Rp305
ag2
(S'0.557'
p306
tp307
Rp308
aa(lp309
g2
(S'0.157'
p310
tp311
Rp312
ag2
(g3
tp313
Rp314
ag2
(S'0.573'
p315
tp316
Rp317
aa(lp318
g2
(S'0.165'
p319
tp320
Rp321
ag2
(g3
tp322
Rp323
ag2
(S'0.588'
p324
tp325
Rp326
aa(lp327
g2
(S'0.173'
p328
tp329
Rp330
ag2
(g3
tp331
Rp332
ag2
(S'0.604'
p333
tp334
Rp335
aa(lp336
g2
(S'0.180'
p337
tp338
Rp339
ag2
(g3
tp340
Rp341
ag2
(S'0.620'
p342
tp343
Rp344
aa(lp345
g2
(S'0.188'
p346
tp347
Rp348
ag2
(g3
tp349
Rp350
ag2
(S'0.635'
p351
tp352
Rp353
aa(lp354
g2
(S'0.196'
p355
tp356
Rp357
ag2
(g3
tp358
Rp359
ag2
(S'0.651'
p360
tp361
Rp362
aa(lp363
g2
(S'0.204'
p364
tp365
Rp366
ag2
(g3
tp367
Rp368
ag2
(S'0.667'
p369
tp370
Rp371
aa(lp372
g2
(S'0.212'
p373
tp374
Rp375
ag2
(g3
tp376
Rp377
ag2
(S'0.682'
p378
tp379
Rp380
aa(lp381
g2
(S'0.220'
p382
tp383
Rp384
ag2
(g3
tp385
Rp386
ag2
(S'0.698'
p387
tp388
Rp389
aa(lp390
g2
(S'0.227'
p391
tp392
Rp393
ag2
(g3
tp394
Rp395
ag2
(S'0.714'
p396
tp397
Rp398
aa(lp399
g2
(S'0.235'
p400
tp401
Rp402
ag2
(g3
tp403
Rp404
ag2
(S'0.729'
p405
tp406
Rp407
aa(lp408
g2
(S'0.243'
p409
tp410
Rp411
ag2
(g3
tp412
Rp413
ag2
(S'0.749'
p414
tp415
Rp416
aa(lp417
g2
(S'0.251'
p418
tp419
Rp420
ag2
(g3
tp421
Rp422
ag2
(S'0.765'
p423
tp424
Rp425
aa(lp426
g2
(S'0.259'
p427
tp428
Rp429
ag2
(g3
tp430
Rp431
ag2
(S'0.780'
p432
tp433
Rp434
aa(lp435
g2
(S'0.267'
p436
tp437
Rp438
ag2
(g3
tp439
Rp440
ag2
(S'0.796'
p441
tp442
Rp443
aa(lp444
g2
(S'0.275'
p445
tp446
Rp447
ag2
(g3
tp448
Rp449
ag2
(S'0.812'
p450
tp451
Rp452
aa(lp453
g2
(S'0.282'
p454
tp455
Rp456
ag2
(g3
tp457
Rp458
ag2
(S'0.827'
p459
tp460
Rp461
aa(lp462
g2
(S'0.290'
p463
tp464
Rp465
ag2
(g3
tp466
Rp467
ag2
(S'0.843'
p468
tp469
Rp470
aa(lp471
g2
(S'0.298'
p472
tp473
Rp474
ag2
(g3
tp475
Rp476
ag2
(S'0.859'
p477
tp478
Rp479
aa(lp480
g2
(S'0.306'
p481
tp482
Rp483
ag2
(g3
tp484
Rp485
ag2
(S'0.875'
p486
tp487
Rp488
aa(lp489
g2
(S'0.314'
p490
tp491
Rp492
ag2
(g3
tp493
Rp494
ag2
(S'0.890'
p495
tp496
Rp497
aa(lp498
g2
(S'0.322'
p499
tp500
Rp501
ag2
(g3
tp502
Rp503
ag2
(S'0.878'
p504
tp505
Rp506
aa(lp507
g2
(S'0.329'
p508
tp509
Rp510
ag2
(g3
tp511
Rp512
ag2
(S'0.867'
p513
tp514
Rp515
aa(lp516
g2
(S'0.337'
p517
tp518
Rp519
ag2
(g3
tp520
Rp521
ag2
(S'0.855'
p522
tp523
Rp524
aa(lp525
g2
(S'0.345'
p526
tp527
Rp528
ag2
(g3
tp529
Rp530
ag2
(S'0.839'
p531
tp532
Rp533
aa(lp534
g2
(S'0.353'
p535
tp536
Rp537
ag2
(g3
tp538
Rp539
ag2
(S'0.827'
p540
tp541
Rp542
aa(lp543
g2
(S'0.361'
p544
tp545
Rp546
ag2
(g3
tp547
Rp548
ag2
(S'0.816'
p549
tp550
Rp551
aa(lp552
g2
(S'0.369'
p553
tp554
Rp555
ag2
(g3
tp556
Rp557
ag2
(S'0.804'
p558
tp559
Rp560
aa(lp561
g2
(S'0.376'
p562
tp563
Rp564
ag2
(g3
tp565
Rp566
ag2
(S'0.792'
p567
tp568
Rp569
aa(lp570
g2
(S'0.384'
p571
tp572
Rp573
ag2
(g3
tp574
Rp575
ag2
(S'0.780'
p576
tp577
Rp578
aa(lp579
g2
(S'0.392'
p580
tp581
Rp582
ag2
(g3
tp583
Rp584
ag2
(S'0.765'
p585
tp586
Rp587
aa(lp588
g2
(S'0.4'
p589
tp590
Rp591
ag2
(g3
tp592
Rp593
ag2
(S'0.753'
p594
tp595
Rp596
aa(lp597
g2
(S'0.408'
p598
tp599
Rp600
ag2
(g3
tp601
Rp602
ag2
(S'0.741'
p603
tp604
Rp605
aa(lp606
g2
(S'0.416'
p607
tp608
Rp609
ag2
(g3
tp610
Rp611
ag2
(S'0.729'
p612
tp613
Rp614
aa(lp615
g2
(S'0.424'
p616
tp617
Rp618
ag2
(g3
tp619
Rp620
ag2
(S'0.718'
p621
tp622
Rp623
aa(lp624
g2
(S'0.431'
p625
tp626
Rp627
ag2
(g3
tp628
Rp629
ag2
(S'0.706'
p630
tp631
Rp632
aa(lp633
g2
(S'0.439'
p634
tp635
Rp636
ag2
(g3
tp637
Rp638
ag2
(S'0.694'
p639
tp640
Rp641
aa(lp642
g2
(S'0.447'
p643
tp644
Rp645
ag2
(g3
tp646
Rp647
ag2
(S'0.678'
p648
tp649
Rp650
aa(lp651
g2
(S'0.455'
p652
tp653
Rp654
ag2
(g3
tp655
Rp656
ag2
(S'0.667'
p657
tp658
Rp659
aa(lp660
g2
(S'0.463'
p661
tp662
Rp663
ag2
(g3
tp664
Rp665
ag2
(S'0.655'
p666
tp667
Rp668
aa(lp669
g2
(S'0.471'
p670
tp671
Rp672
ag2
(g3
tp673
Rp674
ag2
(S'0.643'
p675
tp676
Rp677
aa(lp678
g2
(S'0.478'
p679
tp680
Rp681
ag2
(g3
tp682
Rp683
ag2
(S'0.631'
p684
tp685
Rp686
aa(lp687
g2
(S'0.486'
p688
tp689
Rp690
ag2
(g3
tp691
Rp692
ag2
(S'0.620'
p693
tp694
Rp695
aa(lp696
g2
(S'0.494'
p697
tp698
Rp699
ag2
(g3
tp700
Rp701
ag2
(S'0.604'
p702
tp703
Rp704
aa(lp705
g2
(S'0.502'
p706
tp707
Rp708
ag2
(g3
tp709
Rp710
ag2
(S'0.592'
p711
tp712
Rp713
aa(lp714
g2
(S'0.510'
p715
tp716
Rp717
ag2
(g3
tp718
Rp719
ag2
(S'0.580'
p720
tp721
Rp722
aa(lp723
g2
(S'0.518'
p724
tp725
Rp726
ag2
(g3
tp727
Rp728
ag2
(S'0.569'
p729
tp730
Rp731
aa(lp732
g2
(S'0.525'
p733
tp734
Rp735
ag2
(g3
tp736
Rp737
ag2
(S'0.557'
p738
tp739
Rp740
aa(lp741
g2
(S'0.533'
p742
tp743
Rp744
ag2
(g3
tp745
Rp746
ag2
(S'0.545'
p747
tp748
Rp749
aa(lp750
g2
(S'0.541'
p751
tp752
Rp753
ag2
(g3
tp754
Rp755
ag2
(S'0.533'
p756
tp757
Rp758
aa(lp759
g2
(S'0.549'
p760
tp761
Rp762
ag2
(g3
tp763
Rp764
ag2
(S'0.518'
p765
tp766
Rp767
aa(lp768
g2
(S'0.557'
p769
tp770
Rp771
ag2
(g3
tp772
Rp773
ag2
(S'0.506'
p774
tp775
Rp776
aa(lp777
g2
(S'0.565'
p778
tp779
Rp780
ag2
(g3
tp781
Rp782
ag2
(S'0.494'
p783
tp784
Rp785
aa(lp786
g2
(S'0.573'
p787
tp788
Rp789
ag2
(g3
tp790
Rp791
ag2
(S'0.482'
p792
tp793
Rp794
aa(lp795
g2
(S'0.580'
p796
tp797
Rp798
ag2
(g3
tp799
Rp800
ag2
(S'0.471'
p801
tp802
Rp803
aa(lp804
g2
(S'0.588'
p805
tp806
Rp807
ag2
(g3
tp808
Rp809
ag2
(S'0.459'
p810
tp811
Rp812
aa(lp813
g2
(S'0.596'
p814
tp815
Rp816
ag2
(g3
tp817
Rp818
ag2
(S'0.447'
p819
tp820
Rp821
aa(lp822
g2
(S'0.604'
p823
tp824
Rp825
ag2
(g3
tp826
Rp827
ag2
(S'0.431'
p828
tp829
Rp830
aa(lp831
g2
(S'0.612'
p832
tp833
Rp834
ag2
(g3
tp835
Rp836
ag2
(S'0.420'
p837
tp838
Rp839
aa(lp840
g2
(S'0.620'
p841
tp842
Rp843
ag2
(g3
tp844
Rp845
ag2
(S'0.408'
p846
tp847
Rp848
aa(lp849
g2
(S'0.627'
p850
tp851
Rp852
ag2
(g3
tp853
Rp854
ag2
(S'0.396'
p855
tp856
Rp857
aa(lp858
g2
(S'0.635'
p859
tp860
Rp861
ag2
(S'0.00784'
p862
tp863
Rp864
ag2
(S'0.384'
p865
tp866
Rp867
aa(lp868
g2
(S'0.643'
p869
tp870
Rp871
ag2
(S'0.0157'
p872
tp873
Rp874
ag2
(S'0.373'
p875
tp876
Rp877
aa(lp878
g2
(S'0.651'
p879
tp880
Rp881
ag2
(S'0.0235'
p882
tp883
Rp884
ag2
(S'0.357'
p885
tp886
Rp887
aa(lp888
g2
(S'0.659'
p889
tp890
Rp891
ag2
(S'0.0314'
p892
tp893
Rp894
ag2
(S'0.345'
p895
tp896
Rp897
aa(lp898
g2
(S'0.667'
p899
tp900
Rp901
ag2
(S'0.0392'
p902
tp903
Rp904
ag2
(S'0.333'
p905
tp906
Rp907
aa(lp908
g2
(S'0.675'
p909
tp910
Rp911
ag2
(S'0.0471'
p912
tp913
Rp914
ag2
(S'0.322'
p915
tp916
Rp917
aa(lp918
g2
(S'0.682'
p919
tp920
Rp921
ag2
(S'0.0549'
p922
tp923
Rp924
ag2
(S'0.310'
p925
tp926
Rp927
aa(lp928
g2
(S'0.690'
p929
tp930
Rp931
ag2
(S'0.0627'
p932
tp933
Rp934
ag2
(S'0.298'
p935
tp936
Rp937
aa(lp938
g2
(S'0.698'
p939
tp940
Rp941
ag2
(S'0.0706'
p942
tp943
Rp944
ag2
(S'0.286'
p945
tp946
Rp947
aa(lp948
g2
(S'0.706'
p949
tp950
Rp951
ag2
(S'0.0784'
p952
tp953
Rp954
ag2
(S'0.271'
p955
tp956
Rp957
aa(lp958
g2
(S'0.714'
p959
tp960
Rp961
ag2
(S'0.0863'
p962
tp963
Rp964
ag2
(S'0.259'
p965
tp966
Rp967
aa(lp968
g2
(S'0.722'
p969
tp970
Rp971
ag2
(S'0.0941'
p972
tp973
Rp974
ag2
(S'0.247'
p975
tp976
Rp977
aa(lp978
g2
(S'0.729'
p979
tp980
Rp981
ag2
(S'0.102'
p982
tp983
Rp984
ag2
(S'0.235'
p985
tp986
Rp987
aa(lp988
g2
(S'0.737'
p989
tp990
Rp991
ag2
(S'0.110'
p992
tp993
Rp994
ag2
(S'0.224'
p995
tp996
Rp997
aa(lp998
g2
(S'0.745'
p999
tp1000
Rp1001
ag2
(S'0.118'
p1002
tp1003
Rp1004
ag2
(S'0.212'
p1005
tp1006
Rp1007
aa(lp1008
g2
(S'0.753'
p1009
tp1010
Rp1011
ag2
(S'0.125'
p1012
tp1013
Rp1014
ag2
(S'0.196'
p1015
tp1016
Rp1017
aa(lp1018
g2
(S'0.761'
p1019
tp1020
Rp1021
ag2
(S'0.133'
p1022
tp1023
Rp1024
ag2
(S'0.184'
p1025
tp1026
Rp1027
aa(lp1028
g2
(S'0.769'
p1029
tp1030
Rp1031
ag2
(S'0.141'
p1032
tp1033
Rp1034
ag2
(S'0.173'
p1035
tp1036
Rp1037
aa(lp1038
g2
(S'0.776'
p1039
tp1040
Rp1041
ag2
(S'0.149'
p1042
tp1043
Rp1044
ag2
(S'0.161'
p1045
tp1046
Rp1047
aa(lp1048
g2
(S'0.784'
p1049
tp1050
Rp1051
ag2
(S'0.157'
p1052
tp1053
Rp1054
ag2
(S'0.149'
p1055
tp1056
Rp1057
aa(lp1058
g2
(S'0.792'
p1059
tp1060
Rp1061
ag2
(S'0.165'
p1062
tp1063
Rp1064
ag2
(S'0.137'
p1065
tp1066
Rp1067
aa(lp1068
g2
(S'0.8'
p1069
tp1070
Rp1071
ag2
(S'0.173'
p1072
tp1073
Rp1074
ag2
(S'0.125'
p1075
tp1076
Rp1077
aa(lp1078
g2
(S'0.808'
p1079
tp1080
Rp1081
ag2
(S'0.180'
p1082
tp1083
Rp1084
ag2
(S'0.110'
p1085
tp1086
Rp1087
aa(lp1088
g2
(S'0.816'
p1089
tp1090
Rp1091
ag2
(S'0.188'
p1092
tp1093
Rp1094
ag2
(S'0.0980'
p1095
tp1096
Rp1097
aa(lp1098
g2
(S'0.824'
p1099
tp1100
Rp1101
ag2
(S'0.196'
p1102
tp1103
Rp1104
ag2
(S'0.0863'
p1105
tp1106
Rp1107
aa(lp1108
g2
(S'0.831'
p1109
tp1110
Rp1111
ag2
(S'0.204'
p1112
tp1113
Rp1114
ag2
(S'0.0745'
p1115
tp1116
Rp1117
aa(lp1118
g2
(S'0.839'
p1119
tp1120
Rp1121
ag2
(S'0.212'
p1122
tp1123
Rp1124
ag2
(S'0.0627'
p1125
tp1126
Rp1127
aa(lp1128
g2
(S'0.847'
p1129
tp1130
Rp1131
ag2
(S'0.220'
p1132
tp1133
Rp1134
ag2
(S'0.0510'
p1135
tp1136
Rp1137
aa(lp1138
g2
(S'0.855'
p1139
tp1140
Rp1141
ag2
(S'0.227'
p1142
tp1143
Rp1144
ag2
(S'0.0353'
p1145
tp1146
Rp1147
aa(lp1148
g2
(S'0.863'
p1149
tp1150
Rp1151
ag2
(S'0.235'
p1152
tp1153
Rp1154
ag2
(S'0.0235'
p1155
tp1156
Rp1157
aa(lp1158
g2
(S'0.871'
p1159
tp1160
Rp1161
ag2
(S'0.243'
p1162
tp1163
Rp1164
ag2
(S'0.0118'
p1165
tp1166
Rp1167
aa(lp1168
g2
(S'0.878'
p1169
tp1170
Rp1171
ag2
(S'0.251'
p1172
tp1173
Rp1174
ag2
(g3
tp1175
Rp1176
aa(lp1177
g2
(S'0.886'
p1178
tp1179
Rp1180
ag2
(S'0.259'
p1181
tp1182
Rp1183
ag2
(g3
tp1184
Rp1185
aa(lp1186
g2
(S'0.894'
p1187
tp1188
Rp1189
ag2
(S'0.267'
p1190
tp1191
Rp1192
ag2
(g3
tp1193
Rp1194
aa(lp1195
g2
(S'0.902'
p1196
tp1197
Rp1198
ag2
(S'0.275'
p1199
tp1200
Rp1201
ag2
(g3
tp1202
Rp1203
aa(lp1204
g2
(S'0.910'
p1205
tp1206
Rp1207
ag2
(S'0.282'
p1208
tp1209
Rp1210
ag2
(g3
tp1211
Rp1212
aa(lp1213
g2
(S'0.918'
p1214
tp1215
Rp1216
ag2
(S'0.290'
p1217
tp1218
Rp1219
ag2
(g3
tp1220
Rp1221
aa(lp1222
g2
(S'0.925'
p1223
tp1224
Rp1225
ag2
(S'0.298'
p1226
tp1227
Rp1228
ag2
(g3
tp1229
Rp1230
aa(lp1231
g2
(S'0.933'
p1232
tp1233
Rp1234
ag2
(S'0.306'
p1235
tp1236
Rp1237
ag2
(g3
tp1238
Rp1239
aa(lp1240
g2
(S'0.941'
p1241
tp1242
Rp1243
ag2
(S'0.314'
p1244
tp1245
Rp1246
ag2
(g3
tp1247
Rp1248
aa(lp1249
g2
(S'0.949'
p1250
tp1251
Rp1252
ag2
(S'0.322'
p1253
tp1254
Rp1255
ag2
(g3
tp1256
Rp1257
aa(lp1258
g2
(S'0.957'
p1259
tp1260
Rp1261
ag2
(S'0.329'
p1262
tp1263
Rp1264
ag2
(g3
tp1265
Rp1266
aa(lp1267
g2
(S'0.965'
p1268
tp1269
Rp1270
ag2
(S'0.337'
p1271
tp1272
Rp1273
ag2
(g3
tp1274
Rp1275
aa(lp1276
g2
(S'0.973'
p1277
tp1278
Rp1279
ag2
(S'0.345'
p1280
tp1281
Rp1282
ag2
(g3
tp1283
Rp1284
aa(lp1285
g2
(S'0.980'
p1286
tp1287
Rp1288
ag2
(S'0.353'
p1289
tp1290
Rp1291
ag2
(g3
tp1292
Rp1293
aa(lp1294
g2
(S'0.988'
p1295
tp1296
Rp1297
ag2
(S'0.361'
p1298
tp1299
Rp1300
ag2
(g3
tp1301
Rp1302
aa(lp1303
g2
(S'0.996'
p1304
tp1305
Rp1306
ag2
(S'0.369'
p1307
tp1308
Rp1309
ag2
(g3
tp1310
Rp1311
aa(lp1312
g2
(S'1'
p1313
tp1314
Rp1315
ag2
(S'0.376'
p1316
tp1317
Rp1318
ag2
(g3
tp1319
Rp1320
aa(lp1321
g2
(g1313
tp1322
Rp1323
ag2
(S'0.384'
p1324
tp1325
Rp1326
ag2
(g3
tp1327
Rp1328
aa(lp1329
g2
(g1313
tp1330
Rp1331
ag2
(S'0.392'
p1332
tp1333
Rp1334
ag2
(g3
tp1335
Rp1336
aa(lp1337
g2
(g1313
tp1338
Rp1339
ag2
(S'0.4'
p1340
tp1341
Rp1342
ag2
(g3
tp1343
Rp1344
aa(lp1345
g2
(g1313
tp1346
Rp1347
ag2
(S'0.408'
p1348
tp1349
Rp1350
ag2
(g3
tp1351
Rp1352
aa(lp1353
g2
(g1313
tp1354
Rp1355
ag2
(S'0.416'
p1356
tp1357
Rp1358
ag2
(g3
tp1359
Rp1360
aa(lp1361
g2
(g1313
tp1362
Rp1363
ag2
(S'0.424'
p1364
tp1365
Rp1366
ag2
(g3
tp1367
Rp1368
aa(lp1369
g2
(g1313
tp1370
Rp1371
ag2
(S'0.431'
p1372
tp1373
Rp1374
ag2
(g3
tp1375
Rp1376
aa(lp1377
g2
(g1313
tp1378
Rp1379
ag2
(S'0.439'
p1380
tp1381
Rp1382
ag2
(g3
tp1383
Rp1384
aa(lp1385
g2
(g1313
tp1386
Rp1387
ag2
(S'0.447'
p1388
tp1389
Rp1390
ag2
(g3
tp1391
Rp1392
aa(lp1393
g2
(g1313
tp1394
Rp1395
ag2
(S'0.455'
p1396
tp1397
Rp1398
ag2
(g3
tp1399
Rp1400
aa(lp1401
g2
(g1313
tp1402
Rp1403
ag2
(S'0.463'
p1404
tp1405
Rp1406
ag2
(g3
tp1407
Rp1408
aa(lp1409
g2
(g1313
tp1410
Rp1411
ag2
(S'0.471'
p1412
tp1413
Rp1414
ag2
(g3
tp1415
Rp1416
aa(lp1417
g2
(g1313
tp1418
Rp1419
ag2
(S'0.478'
p1420
tp1421
Rp1422
ag2
(g3
tp1423
Rp1424
aa(lp1425
g2
(g1313
tp1426
Rp1427
ag2
(S'0.486'
p1428
tp1429
Rp1430
ag2
(g3
tp1431
Rp1432
aa(lp1433
g2
(g1313
tp1434
Rp1435
ag2
(S'0.494'
p1436
tp1437
Rp1438
ag2
(g3
tp1439
Rp1440
aa(lp1441
g2
(g1313
tp1442
Rp1443
ag2
(S'0.502'
p1444
tp1445
Rp1446
ag2
(g3
tp1447
Rp1448
aa(lp1449
g2
(g1313
tp1450
Rp1451
ag2
(S'0.510'
p1452
tp1453
Rp1454
ag2
(g3
tp1455
Rp1456
aa(lp1457
g2
(g1313
tp1458
Rp1459
ag2
(S'0.518'
p1460
tp1461
Rp1462
ag2
(g3
tp1463
Rp1464
aa(lp1465
g2
(g1313
tp1466
Rp1467
ag2
(S'0.525'
p1468
tp1469
Rp1470
ag2
(g3
tp1471
Rp1472
aa(lp1473
g2
(g1313
tp1474
Rp1475
ag2
(S'0.533'
p1476
tp1477
Rp1478
ag2
(g3
tp1479
Rp1480
aa(lp1481
g2
(g1313
tp1482
Rp1483
ag2
(S'0.541'
p1484
tp1485
Rp1486
ag2
(g3
tp1487
Rp1488
aa(lp1489
g2
(g1313
tp1490
Rp1491
ag2
(S'0.549'
p1492
tp1493
Rp1494
ag2
(g3
tp1495
Rp1496
aa(lp1497
g2
(g1313
tp1498
Rp1499
ag2
(S'0.557'
p1500
tp1501
Rp1502
ag2
(g3
tp1503
Rp1504
aa(lp1505
g2
(g1313
tp1506
Rp1507
ag2
(S'0.565'
p1508
tp1509
Rp1510
ag2
(g3
tp1511
Rp1512
aa(lp1513
g2
(g1313
tp1514
Rp1515
ag2
(S'0.573'
p1516
tp1517
Rp1518
ag2
(g3
tp1519
Rp1520
aa(lp1521
g2
(g1313
tp1522
Rp1523
ag2
(S'0.580'
p1524
tp1525
Rp1526
ag2
(g3
tp1527
Rp1528
aa(lp1529
g2
(g1313
tp1530
Rp1531
ag2
(S'0.588'
p1532
tp1533
Rp1534
ag2
(g3
tp1535
Rp1536
aa(lp1537
g2
(g1313
tp1538
Rp1539
ag2
(S'0.596'
p1540
tp1541
Rp1542
ag2
(g3
tp1543
Rp1544
aa(lp1545
g2
(g1313
tp1546
Rp1547
ag2
(S'0.604'
p1548
tp1549
Rp1550
ag2
(g3
tp1551
Rp1552
aa(lp1553
g2
(g1313
tp1554
Rp1555
ag2
(S'0.612'
p1556
tp1557
Rp1558
ag2
(g3
tp1559
Rp1560
aa(lp1561
g2
(g1313
tp1562
Rp1563
ag2
(S'0.620'
p1564
tp1565
Rp1566
ag2
(g3
tp1567
Rp1568
aa(lp1569
g2
(g1313
tp1570
Rp1571
ag2
(S'0.627'
p1572
tp1573
Rp1574
ag2
(g3
tp1575
Rp1576
aa(lp1577
g2
(g1313
tp1578
Rp1579
ag2
(S'0.635'
p1580
tp1581
Rp1582
ag2
(g3
tp1583
Rp1584
aa(lp1585
g2
(g1313
tp1586
Rp1587
ag2
(S'0.643'
p1588
tp1589
Rp1590
ag2
(g3
tp1591
Rp1592
aa(lp1593
g2
(g1313
tp1594
Rp1595
ag2
(S'0.651'
p1596
tp1597
Rp1598
ag2
(g3
tp1599
Rp1600
aa(lp1601
g2
(g1313
tp1602
Rp1603
ag2
(S'0.659'
p1604
tp1605
Rp1606
ag2
(g3
tp1607
Rp1608
aa(lp1609
g2
(g1313
tp1610
Rp1611
ag2
(S'0.667'
p1612
tp1613
Rp1614
ag2
(g3
tp1615
Rp1616
aa(lp1617
g2
(g1313
tp1618
Rp1619
ag2
(S'0.675'
p1620
tp1621
Rp1622
ag2
(g3
tp1623
Rp1624
aa(lp1625
g2
(g1313
tp1626
Rp1627
ag2
(S'0.682'
p1628
tp1629
Rp1630
ag2
(g3
tp1631
Rp1632
aa(lp1633
g2
(g1313
tp1634
Rp1635
ag2
(S'0.690'
p1636
tp1637
Rp1638
ag2
(g3
tp1639
Rp1640
aa(lp1641
g2
(g1313
tp1642
Rp1643
ag2
(S'0.698'
p1644
tp1645
Rp1646
ag2
(g3
tp1647
Rp1648
aa(lp1649
g2
(g1313
tp1650
Rp1651
ag2
(S'0.706'
p1652
tp1653
Rp1654
ag2
(g3
tp1655
Rp1656
aa(lp1657
g2
(g1313
tp1658
Rp1659
ag2
(S'0.714'
p1660
tp1661
Rp1662
ag2
(g3
tp1663
Rp1664
aa(lp1665
g2
(g1313
tp1666
Rp1667
ag2
(S'0.722'
p1668
tp1669
Rp1670
ag2
(g3
tp1671
Rp1672
aa(lp1673
g2
(g1313
tp1674
Rp1675
ag2
(S'0.729'
p1676
tp1677
Rp1678
ag2
(g3
tp1679
Rp1680
aa(lp1681
g2
(g1313
tp1682
Rp1683
ag2
(S'0.737'
p1684
tp1685
Rp1686
ag2
(g3
tp1687
Rp1688
aa(lp1689
g2
(g1313
tp1690
Rp1691
ag2
(S'0.745'
p1692
tp1693
Rp1694
ag2
(g3
tp1695
Rp1696
aa(lp1697
g2
(g1313
tp1698
Rp1699
ag2
(S'0.753'
p1700
tp1701
Rp1702
ag2
(g3
tp1703
Rp1704
aa(lp1705
g2
(g1313
tp1706
Rp1707
ag2
(S'0.761'
p1708
tp1709
Rp1710
ag2
(g3
tp1711
Rp1712
aa(lp1713
g2
(g1313
tp1714
Rp1715
ag2
(S'0.769'
p1716
tp1717
Rp1718
ag2
(g3
tp1719
Rp1720
aa(lp1721
g2
(g1313
tp1722
Rp1723
ag2
(S'0.776'
p1724
tp1725
Rp1726
ag2
(g3
tp1727
Rp1728
aa(lp1729
g2
(g1313
tp1730
Rp1731
ag2
(S'0.784'
p1732
tp1733
Rp1734
ag2
(g3
tp1735
Rp1736
aa(lp1737
g2
(g1313
tp1738
Rp1739
ag2
(S'0.792'
p1740
tp1741
Rp1742
ag2
(g3
tp1743
Rp1744
aa(lp1745
g2
(g1313
tp1746
Rp1747
ag2
(S'0.8'
p1748
tp1749
Rp1750
ag2
(g3
tp1751
Rp1752
aa(lp1753
g2
(g1313
tp1754
Rp1755
ag2
(S'0.808'
p1756
tp1757
Rp1758
ag2
(g3
tp1759
Rp1760
aa(lp1761
g2
(g1313
tp1762
Rp1763
ag2
(S'0.816'
p1764
tp1765
Rp1766
ag2
(g3
tp1767
Rp1768
aa(lp1769
g2
(g1313
tp1770
Rp1771
ag2
(S'0.824'
p1772
tp1773
Rp1774
ag2
(g3
tp1775
Rp1776
aa(lp1777
g2
(g1313
tp1778
Rp1779
ag2
(S'0.831'
p1780
tp1781
Rp1782
ag2
(g3
tp1783
Rp1784
aa(lp1785
g2
(g1313
tp1786
Rp1787
ag2
(S'0.839'
p1788
tp1789
Rp1790
ag2
(g3
tp1791
Rp1792
aa(lp1793
g2
(g1313
tp1794
Rp1795
ag2
(S'0.847'
p1796
tp1797
Rp1798
ag2
(g3
tp1799
Rp1800
aa(lp1801
g2
(g1313
tp1802
Rp1803
ag2
(S'0.855'
p1804
tp1805
Rp1806
ag2
(g3
tp1807
Rp1808
aa(lp1809
g2
(g1313
tp1810
Rp1811
ag2
(S'0.863'
p1812
tp1813
Rp1814
ag2
(g3
tp1815
Rp1816
aa(lp1817
g2
(g1313
tp1818
Rp1819
ag2
(S'0.871'
p1820
tp1821
Rp1822
ag2
(g3
tp1823
Rp1824
aa(lp1825
g2
(g1313
tp1826
Rp1827
ag2
(S'0.878'
p1828
tp1829
Rp1830
ag2
(g3
tp1831
Rp1832
aa(lp1833
g2
(g1313
tp1834
Rp1835
ag2
(S'0.886'
p1836
tp1837
Rp1838
ag2
(S'0.0235'
p1839
tp1840
Rp1841
aa(lp1842
g2
(g1313
tp1843
Rp1844
ag2
(S'0.894'
p1845
tp1846
Rp1847
ag2
(S'0.0510'
p1848
tp1849
Rp1850
aa(lp1851
g2
(g1313
tp1852
Rp1853
ag2
(S'0.902'
p1854
tp1855
Rp1856
ag2
(S'0.0745'
p1857
tp1858
Rp1859
aa(lp1860
g2
(g1313
tp1861
Rp1862
ag2
(S'0.910'
p1863
tp1864
Rp1865
ag2
(S'0.102'
p1866
tp1867
Rp1868
aa(lp1869
g2
(g1313
tp1870
Rp1871
ag2
(S'0.918'
p1872
tp1873
Rp1874
ag2
(S'0.125'
p1875
tp1876
Rp1877
aa(lp1878
g2
(g1313
tp1879
Rp1880
ag2
(S'0.925'
p1881
tp1882
Rp1883
ag2
(S'0.149'
p1884
tp1885
Rp1886
aa(lp1887
g2
(g1313
tp1888
Rp1889
ag2
(S'0.933'
p1890
tp1891
Rp1892
ag2
(S'0.176'
p1893
tp1894
Rp1895
aa(lp1896
g2
(g1313
tp1897
Rp1898
ag2
(S'0.941'
p1899
tp1900
Rp1901
ag2
(S'0.2'
p1902
tp1903
Rp1904
aa(lp1905
g2
(g1313
tp1906
Rp1907
ag2
(S'0.949'
p1908
tp1909
Rp1910
ag2
(S'0.224'
p1911
tp1912
Rp1913
aa(lp1914
g2
(g1313
tp1915
Rp1916
ag2
(S'0.957'
p1917
tp1918
Rp1919
ag2
(S'0.251'
p1920
tp1921
Rp1922
aa(lp1923
g2
(g1313
tp1924
Rp1925
ag2
(S'0.965'
p1926
tp1927
Rp1928
ag2
(S'0.275'
p1929
tp1930
Rp1931
aa(lp1932
g2
(g1313
tp1933
Rp1934
ag2
(S'0.973'
p1935
tp1936
Rp1937
ag2
(S'0.298'
p1938
tp1939
Rp1940
aa(lp1941
g2
(g1313
tp1942
Rp1943
ag2
(S'0.980'
p1944
tp1945
Rp1946
ag2
(S'0.325'
p1947
tp1948
Rp1949
aa(lp1950
g2
(g1313
tp1951
Rp1952
ag2
(S'0.988'
p1953
tp1954
Rp1955
ag2
(S'0.349'
p1956
tp1957
Rp1958
aa(lp1959
g2
(g1313
tp1960
Rp1961
ag2
(S'0.996'
p1962
tp1963
Rp1964
ag2
(S'0.376'
p1965
tp1966
Rp1967
aa(lp1968
g2
(g1313
tp1969
Rp1970
ag2
(g1313
tp1971
Rp1972
ag2
(S'0.4'
p1973
tp1974
Rp1975
aa(lp1976
g2
(g1313
tp1977
Rp1978
ag2
(g1313
tp1979
Rp1980
ag2
(S'0.424'
p1981
tp1982
Rp1983
aa(lp1984
g2
(g1313
tp1985
Rp1986
ag2
(g1313
tp1987
Rp1988
ag2
(S'0.451'
p1989
tp1990
Rp1991
aa(lp1992
g2
(g1313
tp1993
Rp1994
ag2
(g1313
tp1995
Rp1996
ag2
(S'0.475'
p1997
tp1998
Rp1999
aa(lp2000
g2
(g1313
tp2001
Rp2002
ag2
(g1313
tp2003
Rp2004
ag2
(S'0.502'
p2005
tp2006
Rp2007
aa(lp2008
g2
(g1313
tp2009
Rp2010
ag2
(g1313
tp2011
Rp2012
ag2
(S'0.525'
p2013
tp2014
Rp2015
aa(lp2016
g2
(g1313
tp2017
Rp2018
ag2
(g1313
tp2019
Rp2020
ag2
(S'0.549'
p2021
tp2022
Rp2023
aa(lp2024
g2
(g1313
tp2025
Rp2026
ag2
(g1313
tp2027
Rp2028
ag2
(S'0.576'
p2029
tp2030
Rp2031
aa(lp2032
g2
(g1313
tp2033
Rp2034
ag2
(g1313
tp2035
Rp2036
ag2
(S'0.6'
p2037
tp2038
Rp2039
aa(lp2040
g2
(g1313
tp2041
Rp2042
ag2
(g1313
tp2043
Rp2044
ag2
(S'0.624'
p2045
tp2046
Rp2047
aa(lp2048
g2
(g1313
tp2049
Rp2050
ag2
(g1313
tp2051
Rp2052
ag2
(S'0.651'
p2053
tp2054
Rp2055
aa(lp2056
g2
(g1313
tp2057
Rp2058
ag2
(g1313
tp2059
Rp2060
ag2
(S'0.675'
p2061
tp2062
Rp2063
aa(lp2064
g2
(g1313
tp2065
Rp2066
ag2
(g1313
tp2067
Rp2068
ag2
(S'0.698'
p2069
tp2070
Rp2071
aa(lp2072
g2
(g1313
tp2073
Rp2074
ag2
(g1313
tp2075
Rp2076
ag2
(S'0.725'
p2077
tp2078
Rp2079
aa(lp2080
g2
(g1313
tp2081
Rp2082
ag2
(g1313
tp2083
Rp2084
ag2
(S'0.749'
p2085
tp2086
Rp2087
aa(lp2088
g2
(g1313
tp2089
Rp2090
ag2
(g1313
tp2091
Rp2092
ag2
(S'0.776'
p2093
tp2094
Rp2095
aa(lp2096
g2
(g1313
tp2097
Rp2098
ag2
(g1313
tp2099
Rp2100
ag2
(S'0.8'
p2101
tp2102
Rp2103
aa(lp2104
g2
(g1313
tp2105
Rp2106
ag2
(g1313
tp2107
Rp2108
ag2
(S'0.824'
p2109
tp2110
Rp2111
aa(lp2112
g2
(g1313
tp2113
Rp2114
ag2
(g1313
tp2115
Rp2116
ag2
(S'0.851'
p2117
tp2118
Rp2119
aa(lp2120
g2
(g1313
tp2121
Rp2122
ag2
(g1313
tp2123
Rp2124
ag2
(S'0.875'
p2125
tp2126
Rp2127
aa(lp2128
g2
(g1313
tp2129
Rp2130
ag2
(g1313
tp2131
Rp2132
ag2
(S'0.902'
p2133
tp2134
Rp2135
aa(lp2136
g2
(g1313
tp2137
Rp2138
ag2
(g1313
tp2139
Rp2140
ag2
(S'0.925'
p2141
tp2142
Rp2143
aa(lp2144
g2
(g1313
tp2145
Rp2146
ag2
(g1313
tp2147
Rp2148
ag2
(S'0.949'
p2149
tp2150
Rp2151
aa(lp2152
g2
(g1313
tp2153
Rp2154
ag2
(g1313
tp2155
Rp2156
ag2
(S'0.976'
p2157
tp2158
Rp2159
aa(lp2160
g2
(g1313
tp2161
Rp2162
ag2
(g1313
tp2163
Rp2164
ag2
(g1313
tp2165
Rp2166
aa(lp2167
g2
(g1313
tp2168
Rp2169
ag2
(g1313
tp2170
Rp2171
ag2
(g1313
tp2172
Rp2173
aa(lp2174
g2
(g1313
tp2175
Rp2176
ag2
(g1313
tp2177
Rp2178
ag2
(g1313
tp2179
Rp2180
aa(lp2181
g2
(g1313
tp2182
Rp2183
ag2
(g1313
tp2184
Rp2185
ag2
(g1313
tp2186
Rp2187
aa(lp2188
g2
(g1313
tp2189
Rp2190
ag2
(g1313
tp2191
Rp2192
ag2
(g1313
tp2193
Rp2194
aa(lp2195
g2
(g1313
tp2196
Rp2197
ag2
(g1313
tp2198
Rp2199
ag2
(g1313
tp2200
Rp2201
aa(lp2202
g2
(g1313
tp2203
Rp2204
ag2
(g1313
tp2205
Rp2206
ag2
(g1313
tp2207
Rp2208
aa(lp2209
g2
(g1313
tp2210
Rp2211
ag2
(g1313
tp2212
Rp2213
ag2
(g1313
tp2214
Rp2215
aa.