(lp0
(lp1
cdecimal
Decimal
p2
(S'0'
p3
tp4
Rp5
ag2
(g3
tp6
Rp7
ag2
(g3
tp8
Rp9
aa(lp10
g2
(g3
tp11
Rp12
ag2
(S'0.00784'
p13
tp14
Rp15
ag2
(S'0.0118'
p16
tp17
Rp18
aa(lp19
g2
(g3
tp20
Rp21
ag2
(S'0.0157'
p22
tp23
Rp24
ag2
(S'0.0196'
p25
tp26
Rp27
aa(lp28
g2
(g3
tp29
Rp30
ag2
(S'0.0235'
p31
tp32
Rp33
ag2
(S'0.0314'
p34
tp35
Rp36
aa(lp37
g2
(g3
tp38
Rp39
ag2
(S'0.0314'
p40
tp41
Rp42
ag2
(S'0.0431'
p43
tp44
Rp45
aa(lp46
g2
(g3
tp47
Rp48
ag2
(S'0.0392'
p49
tp50
Rp51
ag2
(S'0.0510'
p52
tp53
Rp54
aa(lp55
g2
(g3
tp56
Rp57
ag2
(S'0.0471'
p58
tp59
Rp60
ag2
(S'0.0627'
p61
tp62
Rp63
aa(lp64
g2
(g3
tp65
Rp66
ag2
(S'0.0549'
p67
tp68
Rp69
ag2
(S'0.0745'
p70
tp71
Rp72
aa(lp73
g2
(g3
tp74
Rp75
ag2
(S'0.0627'
p76
tp77
Rp78
ag2
(S'0.0824'
p79
tp80
Rp81
aa(lp82
g2
(g3
tp83
Rp84
ag2
(S'0.0706'
p85
tp86
Rp87
ag2
(S'0.0941'
p88
tp89
Rp90
aa(lp91
g2
(g3
tp92
Rp93
ag2
(S'0.0784'
p94
tp95
Rp96
ag2
(S'0.106'
p97
tp98
Rp99
aa(lp100
g2
(g3
tp101
Rp102
ag2
(S'0.0863'
p103
tp104
Rp105
ag2
(S'0.114'
p106
tp107
Rp108
aa(lp109
g2
(g3
tp110
Rp111
ag2
(S'0.0941'
p112
tp113
Rp114
ag2
(S'0.125'
p115
tp116
Rp117
aa(lp118
g2
(g3
tp119
Rp120
ag2
(S'0.102'
p121
tp122
Rp123
ag2
(S'0.137'
p124
tp125
Rp126
aa(lp127
g2
(g3
tp128
Rp129
ag2
(S'0.110'
p130
tp131
Rp132
ag2
(S'0.145'
p133
tp134
Rp135
aa(lp136
g2
(g3
tp137
Rp138
ag2
(S'0.118'
p139
tp140
Rp141
ag2
(S'0.157'
p142
tp143
Rp144
aa(lp145
g2
(g3
tp146
Rp147
ag2
(S'0.125'
p148
tp149
Rp150
ag2
(S'0.165'
p151
tp152
Rp153
aa(lp154
g2
(g3
tp155
Rp156
ag2
(S'0.133'
p157
tp158
Rp159
ag2
(S'0.176'
p160
tp161
Rp162
aa(lp163
g2
(g3
tp164
Rp165
ag2
(S'0.141'
p166
tp167
Rp168
ag2
(S'0.188'
p169
tp170
Rp171
aa(lp172
g2
(g3
tp173
Rp174
ag2
(S'0.149'
p175
tp176
Rp177
ag2
(S'0.196'
p178
tp179
Rp180
aa(lp181
g2
(g3
tp182
Rp183
ag2
(S'0.157'
p184
tp185
Rp186
ag2
(S'0.208'
p187
tp188
Rp189
aa(lp190
g2
(g3
tp191
Rp192
ag2
(S'0.165'
p193
tp194
Rp195
ag2
(S'0.220'
p196
tp197
Rp198
aa(lp199
g2
(g3
tp200
Rp201
ag2
(S'0.173'
p202
tp203
Rp204
ag2
(S'0.227'
p205
tp206
Rp207
aa(lp208
g2
(g3
tp209
Rp210
ag2
(S'0.180'
p211
tp212
Rp213
ag2
(S'0.239'
p214
tp215
Rp216
aa(lp217
g2
(g3
tp218
Rp219
ag2
(S'0.188'
p220
tp221
Rp222
ag2
(S'0.251'
p223
tp224
Rp225
aa(lp226
g2
(g3
tp227
Rp228
ag2
(S'0.196'
p229
tp230
Rp231
ag2
(S'0.259'
p232
tp233
Rp234
aa(lp235
g2
(g3
tp236
Rp237
ag2
(S'0.204'
p238
tp239
Rp240
ag2
(S'0.271'
p241
tp242
Rp243
aa(lp244
g2
(g3
tp245
Rp246
ag2
(S'0.212'
p247
tp248
Rp249
ag2
(S'0.282'
p250
tp251
Rp252
aa(lp253
g2
(g3
tp254
Rp255
ag2
(S'0.220'
p256
tp257
Rp258
ag2
(S'0.290'
p259
tp260
Rp261
aa(lp262
g2
(g3
tp263
Rp264
ag2
(S'0.227'
p265
tp266
Rp267
ag2
(S'0.302'
p268
tp269
Rp270
aa(lp271
g2
(g3
tp272
Rp273
ag2
(S'0.235'
p274
tp275
Rp276
ag2
(S'0.314'
p277
tp278
Rp279
aa(lp280
g2
(g3
tp281
Rp282
ag2
(S'0.243'
p283
tp284
Rp285
ag2
(S'0.322'
p286
tp287
Rp288
aa(lp289
g2
(g3
tp290
Rp291
ag2
(S'0.251'
p292
tp293
Rp294
ag2
(S'0.333'
p295
tp296
Rp297
aa(lp298
g2
(g3
tp299
Rp300
ag2
(S'0.259'
p301
tp302
Rp303
ag2
(S'0.345'
p304
tp305
Rp306
aa(lp307
g2
(g3
tp308
Rp309
ag2
(S'0.267'
p310
tp311
Rp312
ag2
(S'0.353'
p313
tp314
Rp315
aa(lp316
g2
(g3
tp317
Rp318
ag2
(S'0.275'
p319
tp320
Rp321
ag2
(S'0.365'
p322
tp323
Rp324
aa(lp325
g2
(g3
tp326
Rp327
ag2
(S'0.282'
p328
tp329
Rp330
ag2
(S'0.376'
p331
tp332
Rp333
aa(lp334
g2
(g3
tp335
Rp336
ag2
(S'0.290'
p337
tp338
Rp339
ag2
(S'0.384'
p340
tp341
Rp342
aa(lp343
g2
(g3
tp344
Rp345
ag2
(S'0.298'
p346
tp347
Rp348
ag2
(S'0.396'
p349
tp350
Rp351
aa(lp352
g2
(g3
tp353
Rp354
ag2
(S'0.306'
p355
tp356
Rp357
ag2
(S'0.408'
p358
tp359
Rp360
aa(lp361
g2
(g3
tp362
Rp363
ag2
(S'0.314'
p364
tp365
Rp366
ag2
(S'0.416'
p367
tp368
Rp369
aa(lp370
g2
(g3
tp371
Rp372
ag2
(S'0.322'
p373
tp374
Rp375
ag2
(S'0.427'
p376
tp377
Rp378
aa(lp379
g2
(g3
tp380
Rp381
ag2
(S'0.329'
p382
tp383
Rp384
ag2
(S'0.439'
p385
tp386
Rp387
aa(lp388
g2
(g3
tp389
Rp390
ag2
(S'0.337'
p391
tp392
Rp393
ag2
(S'0.447'
p394
tp395
Rp396
aa(lp397
g2
(g3
tp398
Rp399
ag2
(S'0.345'
p400
tp401
Rp402
ag2
(S'0.459'
p403
tp404
Rp405
aa(lp406
g2
(g3
tp407
Rp408
ag2
(S'0.353'
p409
tp410
Rp411
ag2
(S'0.471'
p412
tp413
Rp414
aa(lp415
g2
(g3
tp416
Rp417
ag2
(S'0.361'
p418
tp419
Rp420
ag2
(S'0.478'
p421
tp422
Rp423
aa(lp424
g2
(g3
tp425
Rp426
ag2
(S'0.369'
p427
tp428
Rp429
ag2
(S'0.490'
p430
tp431
Rp432
aa(lp433
g2
(g3
tp434
Rp435
ag2
(S'0.376'
p436
tp437
Rp438
ag2
(S'0.502'
p439
tp440
Rp441
aa(lp442
g2
(g3
tp443
Rp444
ag2
(S'0.384'
p445
tp446
Rp447
ag2
(S'0.510'
p448
tp449
Rp450
aa(lp451
g2
(g3
tp452
Rp453
ag2
(S'0.392'
p454
tp455
Rp456
ag2
(S'0.522'
p457
tp458
Rp459
aa(lp460
g2
(g3
tp461
Rp462
ag2
(S'0.4'
p463
tp464
Rp465
ag2
(S'0.529'
p466
tp467
Rp468
aa(lp469
g2
(g3
tp470
Rp471
ag2
(S'0.408'
p472
tp473
Rp474
ag2
(S'0.541'
p475
tp476
Rp477
aa(lp478
g2
(g3
tp479
Rp480
ag2
(S'0.416'
p481
tp482
Rp483
ag2
(S'0.553'
p484
tp485
Rp486
aa(lp487
g2
(g3
tp488
Rp489
ag2
(S'0.424'
p490
tp491
Rp492
ag2
(S'0.561'
p493
tp494
Rp495
aa(lp496
g2
(g3
tp497
Rp498
ag2
(S'0.431'
p499
tp500
Rp501
ag2
(S'0.573'
p502
tp503
Rp504
aa(lp505
g2
(g3
tp506
Rp507
ag2
(S'0.439'
p508
tp509
Rp510
ag2
(S'0.584'
p511
tp512
Rp513
aa(lp514
g2
(g3
tp515
Rp516
ag2
(S'0.447'
p517
tp518
Rp519
ag2
(S'0.592'
p520
tp521
Rp522
aa(lp523
g2
(g3
tp524
Rp525
ag2
(S'0.455'
p526
tp527
Rp528
ag2
(S'0.604'
p529
tp530
Rp531
aa(lp532
g2
(g3
tp533
Rp534
ag2
(S'0.463'
p535
tp536
Rp537
ag2
(S'0.616'
p538
tp539
Rp540
aa(lp541
g2
(g3
tp542
Rp543
ag2
(S'0.471'
p544
tp545
Rp546
ag2
(S'0.624'
p547
tp548
Rp549
aa(lp550
g2
(g3
tp551
Rp552
ag2
(S'0.478'
p553
tp554
Rp555
ag2
(S'0.635'
p556
tp557
Rp558
aa(lp559
g2
(g3
tp560
Rp561
ag2
(S'0.486'
p562
tp563
Rp564
ag2
(S'0.647'
p565
tp566
Rp567
aa(lp568
g2
(g3
tp569
Rp570
ag2
(S'0.494'
p571
tp572
Rp573
ag2
(S'0.655'
p574
tp575
Rp576
aa(lp577
g2
(g3
tp578
Rp579
ag2
(S'0.502'
p580
tp581
Rp582
ag2
(S'0.667'
p583
tp584
Rp585
aa(lp586
g2
(g3
tp587
Rp588
ag2
(S'0.510'
p589
tp590
Rp591
ag2
(S'0.655'
p592
tp593
Rp594
aa(lp595
g2
(g3
tp596
Rp597
ag2
(S'0.518'
p598
tp599
Rp600
ag2
(S'0.647'
p601
tp602
Rp603
aa(lp604
g2
(g3
tp605
Rp606
ag2
(S'0.525'
p607
tp608
Rp609
ag2
(S'0.635'
p610
tp611
Rp612
aa(lp613
g2
(g3
tp614
Rp615
ag2
(S'0.533'
p616
tp617
Rp618
ag2
(S'0.624'
p619
tp620
Rp621
aa(lp622
g2
(g3
tp623
Rp624
ag2
(S'0.541'
p625
tp626
Rp627
ag2
(S'0.616'
p628
tp629
Rp630
aa(lp631
g2
(g3
tp632
Rp633
ag2
(S'0.549'
p634
tp635
Rp636
ag2
(S'0.604'
p637
tp638
Rp639
aa(lp640
g2
(g3
tp641
Rp642
ag2
(S'0.557'
p643
tp644
Rp645
ag2
(S'0.592'
p646
tp647
Rp648
aa(lp649
g2
(g3
tp650
Rp651
ag2
(S'0.565'
p652
tp653
Rp654
ag2
(S'0.584'
p655
tp656
Rp657
aa(lp658
g2
(g3
tp659
Rp660
ag2
(S'0.573'
p661
tp662
Rp663
ag2
(S'0.573'
p664
tp665
Rp666
aa(lp667
g2
(g3
tp668
Rp669
ag2
(S'0.580'
p670
tp671
Rp672
ag2
(S'0.561'
p673
tp674
Rp675
aa(lp676
g2
(g3
tp677
Rp678
ag2
(S'0.588'
p679
tp680
Rp681
ag2
(S'0.553'
p682
tp683
Rp684
aa(lp685
g2
(g3
tp686
Rp687
ag2
(S'0.596'
p688
tp689
Rp690
ag2
(S'0.541'
p691
tp692
Rp693
aa(lp694
g2
(g3
tp695
Rp696
ag2
(S'0.604'
p697
tp698
Rp699
ag2
(S'0.529'
p700
tp701
Rp702
aa(lp703
g2
(g3
tp704
Rp705
ag2
(S'0.612'
p706
tp707
Rp708
ag2
(S'0.522'
p709
tp710
Rp711
aa(lp712
g2
(g3
tp713
Rp714
ag2
(S'0.620'
p715
tp716
Rp717
ag2
(S'0.510'
p718
tp719
Rp720
aa(lp721
g2
(g3
tp722
Rp723
ag2
(S'0.627'
p724
tp725
Rp726
ag2
(S'0.502'
p727
tp728
Rp729
aa(lp730
g2
(g3
tp731
Rp732
ag2
(S'0.635'
p733
tp734
Rp735
ag2
(S'0.490'
p736
tp737
Rp738
aa(lp739
g2
(g3
tp740
Rp741
ag2
(S'0.643'
p742
tp743
Rp744
ag2
(S'0.478'
p745
tp746
Rp747
aa(lp748
g2
(g3
tp749
Rp750
ag2
(S'0.651'
p751
tp752
Rp753
ag2
(S'0.471'
p754
tp755
Rp756
aa(lp757
g2
(g3
tp758
Rp759
ag2
(S'0.659'
p760
tp761
Rp762
ag2
(S'0.459'
p763
tp764
Rp765
aa(lp766
g2
(g3
tp767
Rp768
ag2
(S'0.667'
p769
tp770
Rp771
ag2
(S'0.447'
p772
tp773
Rp774
aa(lp775
g2
(g3
tp776
Rp777
ag2
(S'0.675'
p778
tp779
Rp780
ag2
(S'0.439'
p781
tp782
Rp783
aa(lp784
g2
(g3
tp785
Rp786
ag2
(S'0.682'
p787
tp788
Rp789
ag2
(S'0.427'
p790
tp791
Rp792
aa(lp793
g2
(g3
tp794
Rp795
ag2
(S'0.690'
p796
tp797
Rp798
ag2
(S'0.416'
p799
tp800
Rp801
aa(lp802
g2
(g3
tp803
Rp804
ag2
(S'0.698'
p805
tp806
Rp807
ag2
(S'0.408'
p808
tp809
Rp810
aa(lp811
g2
(g3
tp812
Rp813
ag2
(S'0.706'
p814
tp815
Rp816
ag2
(S'0.396'
p817
tp818
Rp819
aa(lp820
g2
(g3
tp821
Rp822
ag2
(S'0.714'
p823
tp824
Rp825
ag2
(S'0.384'
p826
tp827
Rp828
aa(lp829
g2
(g3
tp830
Rp831
ag2
(S'0.722'
p832
tp833
Rp834
ag2
(S'0.376'
p835
tp836
Rp837
aa(lp838
g2
(g3
tp839
Rp840
ag2
(S'0.729'
p841
tp842
Rp843
ag2
(S'0.365'
p844
tp845
Rp846
aa(lp847
g2
(g3
tp848
Rp849
ag2
(S'0.737'
p850
tp851
Rp852
ag2
(S'0.353'
p853
tp854
Rp855
aa(lp856
g2
(g3
tp857
Rp858
ag2
(S'0.745'
p859
tp860
Rp861
ag2
(S'0.345'
p862
tp863
Rp864
aa(lp865
g2
(g3
tp866
Rp867
ag2
(S'0.753'
p868
tp869
Rp870
ag2
(S'0.333'
p871
tp872
Rp873
aa(lp874
g2
(g3
tp875
Rp876
ag2
(S'0.761'
p877
tp878
Rp879
ag2
(S'0.322'
p880
tp881
Rp882
aa(lp883
g2
(g3
tp884
Rp885
ag2
(S'0.769'
p886
tp887
Rp888
ag2
(S'0.314'
p889
tp890
Rp891
aa(lp892
g2
(g3
tp893
Rp894
ag2
(S'0.776'
p895
tp896
Rp897
ag2
(S'0.302'
p898
tp899
Rp900
aa(lp901
g2
(g3
tp902
Rp903
ag2
(S'0.784'
p904
tp905
Rp906
ag2
(S'0.290'
p907
tp908
Rp909
aa(lp910
g2
(g3
tp911
Rp912
ag2
(S'0.792'
p913
tp914
Rp915
ag2
(S'0.282'
p916
tp917
Rp918
aa(lp919
g2
(g3
tp920
Rp921
ag2
(S'0.8'
p922
tp923
Rp924
ag2
(S'0.271'
p925
tp926
Rp927
aa(lp928
g2
(g3
tp929
Rp930
ag2
(S'0.808'
p931
tp932
Rp933
ag2
(S'0.259'
p934
tp935
Rp936
aa(lp937
g2
(g3
tp938
Rp939
ag2
(S'0.816'
p940
tp941
Rp942
ag2
(S'0.251'
p943
tp944
Rp945
aa(lp946
g2
(g3
tp947
Rp948
ag2
(S'0.824'
p949
tp950
Rp951
ag2
(S'0.239'
p952
tp953
Rp954
aa(lp955
g2
(g3
tp956
Rp957
ag2
(S'0.831'
p958
tp959
Rp960
ag2
(S'0.227'
p961
tp962
Rp963
aa(lp964
g2
(g3
tp965
Rp966
ag2
(S'0.839'
p967
tp968
Rp969
ag2
(S'0.220'
p970
tp971
Rp972
aa(lp973
g2
(g3
tp974
Rp975
ag2
(S'0.847'
p976
tp977
Rp978
ag2
(S'0.208'
p979
tp980
Rp981
aa(lp982
g2
(g3
tp983
Rp984
ag2
(S'0.855'
p985
tp986
Rp987
ag2
(S'0.196'
p988
tp989
Rp990
aa(lp991
g2
(g3
tp992
Rp993
ag2
(S'0.863'
p994
tp995
Rp996
ag2
(S'0.188'
p997
tp998
Rp999
aa(lp1000
g2
(g3
tp1001
Rp1002
ag2
(S'0.871'
p1003
tp1004
Rp1005
ag2
(S'0.176'
p1006
tp1007
Rp1008
aa(lp1009
g2
(g3
tp1010
Rp1011
ag2
(S'0.878'
p1012
tp1013
Rp1014
ag2
(S'0.165'
p1015
tp1016
Rp1017
aa(lp1018
g2
(g3
tp1019
Rp1020
ag2
(S'0.886'
p1021
tp1022
Rp1023
ag2
(S'0.157'
p1024
tp1025
Rp1026
aa(lp1027
g2
(g3
tp1028
Rp1029
ag2
(S'0.894'
p1030
tp1031
Rp1032
ag2
(S'0.145'
p1033
tp1034
Rp1035
aa(lp1036
g2
(g3
tp1037
Rp1038
ag2
(S'0.902'
p1039
tp1040
Rp1041
ag2
(S'0.137'
p1042
tp1043
Rp1044
aa(lp1045
g2
(g3
tp1046
Rp1047
ag2
(S'0.910'
p1048
tp1049
Rp1050
ag2
(S'0.125'
p1051
tp1052
Rp1053
aa(lp1054
g2
(g3
tp1055
Rp1056
ag2
(S'0.918'
p1057
tp1058
Rp1059
ag2
(S'0.114'
p1060
tp1061
Rp1062
aa(lp1063
g2
(g3
tp1064
Rp1065
ag2
(S'0.925'
p1066
tp1067
Rp1068
ag2
(S'0.106'
p1069
tp1070
Rp1071
aa(lp1072
g2
(g3
tp1073
Rp1074
ag2
(S'0.933'
p1075
tp1076
Rp1077
ag2
(S'0.0941'
p1078
tp1079
Rp1080
aa(lp1081
g2
(g3
tp1082
Rp1083
ag2
(S'0.941'
p1084
tp1085
Rp1086
ag2
(S'0.0824'
p1087
tp1088
Rp1089
aa(lp1090
g2
(g3
tp1091
Rp1092
ag2
(S'0.949'
p1093
tp1094
Rp1095
ag2
(S'0.0745'
p1096
tp1097
Rp1098
aa(lp1099
g2
(g3
tp1100
Rp1101
ag2
(S'0.957'
p1102
tp1103
Rp1104
ag2
(S'0.0627'
p1105
tp1106
Rp1107
aa(lp1108
g2
(g3
tp1109
Rp1110
ag2
(S'0.965'
p1111
tp1112
Rp1113
ag2
(S'0.0510'
p1114
tp1115
Rp1116
aa(lp1117
g2
(g3
tp1118
Rp1119
ag2
(S'0.973'
p1120
tp1121
Rp1122
ag2
(S'0.0431'
p1123
tp1124
Rp1125
aa(lp1126
g2
(g3
tp1127
Rp1128
ag2
(S'0.980'
p1129
tp1130
Rp1131
ag2
(S'0.0314'
p1132
tp1133
Rp1134
aa(lp1135
g2
(g3
tp1136
Rp1137
ag2
(S'0.988'
p1138
tp1139
Rp1140
ag2
(S'0.0196'
p1141
tp1142
Rp1143
aa(lp1144
g2
(g3
tp1145
Rp1146
ag2
(S'0.996'
p1147
tp1148
Rp1149
ag2
(S'0.0118'
p1150
tp1151
Rp1152
aa(lp1153
g2
(g3
tp1154
Rp1155
ag2
(S'1'
p1156
tp1157
Rp1158
ag2
(g3
tp1159
Rp1160
aa(lp1161
g2
(S'0.0157'
p1162
tp1163
Rp1164
ag2
(g1156
tp1165
Rp1166
ag2
(g3
tp1167
Rp1168
aa(lp1169
g2
(S'0.0314'
p1170
tp1171
Rp1172
ag2
(g1156
tp1173
Rp1174
ag2
(g3
tp1175
Rp1176
aa(lp1177
g2
(S'0.0471'
p1178
tp1179
Rp1180
ag2
(g1156
tp1181
Rp1182
ag2
(g3
tp1183
Rp1184
aa(lp1185
g2
(S'0.0627'
p1186
tp1187
Rp1188
ag2
(g1156
tp1189
Rp1190
ag2
(g3
tp1191
Rp1192
aa(lp1193
g2
(S'0.0784'
p1194
tp1195
Rp1196
ag2
(g1156
tp1197
Rp1198
ag2
(g3
tp1199
Rp1200
aa(lp1201
g2
(S'0.0941'
p1202
tp1203
Rp1204
ag2
(g1156
tp1205
Rp1206
ag2
(g3
tp1207
Rp1208
aa(lp1209
g2
(S'0.110'
p1210
tp1211
Rp1212
ag2
(g1156
tp1213
Rp1214
ag2
(g3
tp1215
Rp1216
aa(lp1217
g2
(S'0.125'
p1218
tp1219
Rp1220
ag2
(g1156
tp1221
Rp1222
ag2
(g3
tp1223
Rp1224
aa(lp1225
g2
(S'0.141'
p1226
tp1227
Rp1228
ag2
(g1156
tp1229
Rp1230
ag2
(g3
tp1231
Rp1232
aa(lp1233
g2
(S'0.157'
p1234
tp1235
Rp1236
ag2
(g1156
tp1237
Rp1238
ag2
(g3
tp1239
Rp1240
aa(lp1241
g2
(S'0.173'
p1242
tp1243
Rp1244
ag2
(g1156
tp1245
Rp1246
ag2
(g3
tp1247
Rp1248
aa(lp1249
g2
(S'0.188'
p1250
tp1251
Rp1252
ag2
(g1156
tp1253
Rp1254
ag2
(g3
tp1255
Rp1256
aa(lp1257
g2
(S'0.204'
p1258
tp1259
Rp1260
ag2
(g1156
tp1261
Rp1262
ag2
(g3
tp1263
Rp1264
aa(lp1265
g2
(S'0.220'
p1266
tp1267
Rp1268
ag2
(g1156
tp1269
Rp1270
ag2
(g3
tp1271
Rp1272
aa(lp1273
g2
(S'0.235'
p1274
tp1275
Rp1276
ag2
(g1156
tp1277
Rp1278
ag2
(g3
tp1279
Rp1280
aa(lp1281
g2
(S'0.251'
p1282
tp1283
Rp1284
ag2
(g1156
tp1285
Rp1286
ag2
(g3
tp1287
Rp1288
aa(lp1289
g2
(S'0.267'
p1290
tp1291
Rp1292
ag2
(g1156
tp1293
Rp1294
ag2
(g3
tp1295
Rp1296
aa(lp1297
g2
(S'0.282'
p1298
tp1299
Rp1300
ag2
(g1156
tp1301
Rp1302
ag2
(g3
tp1303
Rp1304
aa(lp1305
g2
(S'0.298'
p1306
tp1307
Rp1308
ag2
(g1156
tp1309
Rp1310
ag2
(g3
tp1311
Rp1312
aa(lp1313
g2
(S'0.314'
p1314
tp1315
Rp1316
ag2
(g1156
tp1317
Rp1318
ag2
(g3
tp1319
Rp1320
aa(lp1321
g2
(S'0.329'
p1322
tp1323
Rp1324
ag2
(g1156
tp1325
Rp1326
ag2
(g3
tp1327
Rp1328
aa(lp1329
g2
(S'0.345'
p1330
tp1331
Rp1332
ag2
(g1156
tp1333
Rp1334
ag2
(g3
tp1335
Rp1336
aa(lp1337
g2
(S'0.361'
p1338
tp1339
Rp1340
ag2
(g1156
tp1341
Rp1342
ag2
(g3
tp1343
Rp1344
aa(lp1345
g2
(S'0.376'
p1346
tp1347
Rp1348
ag2
(g1156
tp1349
Rp1350
ag2
(g3
tp1351
Rp1352
aa(lp1353
g2
(S'0.392'
p1354
tp1355
Rp1356
ag2
(g1156
tp1357
Rp1358
ag2
(g3
tp1359
Rp1360
aa(lp1361
g2
(S'0.408'
p1362
tp1363
Rp1364
ag2
(g1156
tp1365
Rp1366
ag2
(g3
tp1367
Rp1368
aa(lp1369
g2
(S'0.424'
p1370
tp1371
Rp1372
ag2
(g1156
tp1373
Rp1374
ag2
(g3
tp1375
Rp1376
aa(lp1377
g2
(S'0.439'
p1378
tp1379
Rp1380
ag2
(g1156
tp1381
Rp1382
ag2
(g3
tp1383
Rp1384
aa(lp1385
g2
(S'0.455'
p1386
tp1387
Rp1388
ag2
(g1156
tp1389
Rp1390
ag2
(g3
tp1391
Rp1392
aa(lp1393
g2
(S'0.471'
p1394
tp1395
Rp1396
ag2
(g1156
tp1397
Rp1398
ag2
(g3
tp1399
Rp1400
aa(lp1401
g2
(S'0.486'
p1402
tp1403
Rp1404
ag2
(g1156
tp1405
Rp1406
ag2
(g3
tp1407
Rp1408
aa(lp1409
g2
(S'0.502'
p1410
tp1411
Rp1412
ag2
(g1156
tp1413
Rp1414
ag2
(g3
tp1415
Rp1416
aa(lp1417
g2
(S'0.518'
p1418
tp1419
Rp1420
ag2
(g1156
tp1421
Rp1422
ag2
(g3
tp1423
Rp1424
aa(lp1425
g2
(S'0.533'
p1426
tp1427
Rp1428
ag2
(g1156
tp1429
Rp1430
ag2
(g3
tp1431
Rp1432
aa(lp1433
g2
(S'0.549'
p1434
tp1435
Rp1436
ag2
(g1156
tp1437
Rp1438
ag2
(g3
tp1439
Rp1440
aa(lp1441
g2
(S'0.565'
p1442
tp1443
Rp1444
ag2
(g1156
tp1445
Rp1446
ag2
(g3
tp1447
Rp1448
aa(lp1449
g2
(S'0.580'
p1450
tp1451
Rp1452
ag2
(g1156
tp1453
Rp1454
ag2
(g3
tp1455
Rp1456
aa(lp1457
g2
(S'0.596'
p1458
tp1459
Rp1460
ag2
(g1156
tp1461
Rp1462
ag2
(g3
tp1463
Rp1464
aa(lp1465
g2
(S'0.612'
p1466
tp1467
Rp1468
ag2
(g1156
tp1469
Rp1470
ag2
(g3
tp1471
Rp1472
aa(lp1473
g2
(S'0.627'
p1474
tp1475
Rp1476
ag2
(g1156
tp1477
Rp1478
ag2
(g3
tp1479
Rp1480
aa(lp1481
g2
(S'0.643'
p1482
tp1483
Rp1484
ag2
(g1156
tp1485
Rp1486
ag2
(g3
tp1487
Rp1488
aa(lp1489
g2
(S'0.659'
p1490
tp1491
Rp1492
ag2
(g1156
tp1493
Rp1494
ag2
(g3
tp1495
Rp1496
aa(lp1497
g2
(S'0.675'
p1498
tp1499
Rp1500
ag2
(g1156
tp1501
Rp1502
ag2
(g3
tp1503
Rp1504
aa(lp1505
g2
(S'0.690'
p1506
tp1507
Rp1508
ag2
(g1156
tp1509
Rp1510
ag2
(g3
tp1511
Rp1512
aa(lp1513
g2
(S'0.706'
p1514
tp1515
Rp1516
ag2
(g1156
tp1517
Rp1518
ag2
(g3
tp1519
Rp1520
aa(lp1521
g2
(S'0.722'
p1522
tp1523
Rp1524
ag2
(g1156
tp1525
Rp1526
ag2
(g3
tp1527
Rp1528
aa(lp1529
g2
(S'0.737'
p1530
tp1531
Rp1532
ag2
(g1156
tp1533
Rp1534
ag2
(g3
tp1535
Rp1536
aa(lp1537
g2
(S'0.753'
p1538
tp1539
Rp1540
ag2
(g1156
tp1541
Rp1542
ag2
(g3
tp1543
Rp1544
aa(lp1545
g2
(S'0.769'
p1546
tp1547
Rp1548
ag2
(g1156
tp1549
Rp1550
ag2
(g3
tp1551
Rp1552
aa(lp1553
g2
(S'0.784'
p1554
tp1555
Rp1556
ag2
(g1156
tp1557
Rp1558
ag2
(g3
tp1559
Rp1560
aa(lp1561
g2
(S'0.8'
p1562
tp1563
Rp1564
ag2
(g1156
tp1565
Rp1566
ag2
(g3
tp1567
Rp1568
aa(lp1569
g2
(S'0.816'
p1570
tp1571
Rp1572
ag2
(g1156
tp1573
Rp1574
ag2
(g3
tp1575
Rp1576
aa(lp1577
g2
(S'0.831'
p1578
tp1579
Rp1580
ag2
(g1156
tp1581
Rp1582
ag2
(g3
tp1583
Rp1584
aa(lp1585
g2
(S'0.847'
p1586
tp1587
Rp1588
ag2
(g1156
tp1589
Rp1590
ag2
(g3
tp1591
Rp1592
aa(lp1593
g2
(S'0.863'
p1594
tp1595
Rp1596
ag2
(g1156
tp1597
Rp1598
ag2
(g3
tp1599
Rp1600
aa(lp1601
g2
(S'0.878'
p1602
tp1603
Rp1604
ag2
(g1156
tp1605
Rp1606
ag2
(g3
tp1607
Rp1608
aa(lp1609
g2
(S'0.894'
p1610
tp1611
Rp1612
ag2
(g1156
tp1613
Rp1614
ag2
(g3
tp1615
Rp1616
aa(lp1617
g2
(S'0.910'
p1618
tp1619
Rp1620
ag2
(g1156
tp1621
Rp1622
ag2
(g3
tp1623
Rp1624
aa(lp1625
g2
(S'0.925'
p1626
tp1627
Rp1628
ag2
(g1156
tp1629
Rp1630
ag2
(g3
tp1631
Rp1632
aa(lp1633
g2
(S'0.941'
p1634
tp1635
Rp1636
ag2
(g1156
tp1637
Rp1638
ag2
(g3
tp1639
Rp1640
aa(lp1641
g2
(S'0.957'
p1642
tp1643
Rp1644
ag2
(g1156
tp1645
Rp1646
ag2
(g3
tp1647
Rp1648
aa(lp1649
g2
(S'0.973'
p1650
tp1651
Rp1652
ag2
(g1156
tp1653
Rp1654
ag2
(g3
tp1655
Rp1656
aa(lp1657
g2
(S'0.988'
p1658
tp1659
Rp1660
ag2
(g1156
tp1661
Rp1662
ag2
(g3
tp1663
Rp1664
aa(lp1665
g2
(g1156
tp1666
Rp1667
ag2
(g1156
tp1668
Rp1669
ag2
(g3
tp1670
Rp1671
aa(lp1672
g2
(g1156
tp1673
Rp1674
ag2
(g1156
tp1675
Rp1676
ag2
(S'0.0157'
p1677
tp1678
Rp1679
aa(lp1680
g2
(g1156
tp1681
Rp1682
ag2
(g1156
tp1683
Rp1684
ag2
(S'0.0314'
p1685
tp1686
Rp1687
aa(lp1688
g2
(g1156
tp1689
Rp1690
ag2
(g1156
tp1691
Rp1692
ag2
(S'0.0471'
p1693
tp1694
Rp1695
aa(lp1696
g2
(g1156
tp1697
Rp1698
ag2
(g1156
tp1699
Rp1700
ag2
(S'0.0627'
p1701
tp1702
Rp1703
aa(lp1704
g2
(g1156
tp1705
Rp1706
ag2
(g1156
tp1707
Rp1708
ag2
(S'0.0784'
p1709
tp1710
Rp1711
aa(lp1712
g2
(g1156
tp1713
Rp1714
ag2
(g1156
tp1715
Rp1716
ag2
(S'0.0941'
p1717
tp1718
Rp1719
aa(lp1720
g2
(g1156
tp1721
Rp1722
ag2
(g1156
tp1723
Rp1724
ag2
(S'0.110'
p1725
tp1726
Rp1727
aa(lp1728
g2
(g1156
tp1729
Rp1730
ag2
(g1156
tp1731
Rp1732
ag2
(S'0.125'
p1733
tp1734
Rp1735
aa(lp1736
g2
(g1156
tp1737
Rp1738
ag2
(g1156
tp1739
Rp1740
ag2
(S'0.141'
p1741
tp1742
Rp1743
aa(lp1744
g2
(g1156
tp1745
Rp1746
ag2
(g1156
tp1747
Rp1748
ag2
(S'0.157'
p1749
tp1750
Rp1751
aa(lp1752
g2
(g1156
tp1753
Rp1754
ag2
(g1156
tp1755
Rp1756
ag2
(S'0.173'
p1757
tp1758
Rp1759
aa(lp1760
g2
(g1156
tp1761
Rp1762
ag2
(g1156
tp1763
Rp1764
ag2
(S'0.188'
p1765
tp1766
Rp1767
aa(lp1768
g2
(g1156
tp1769
Rp1770
ag2
(g1156
tp1771
Rp1772
ag2
(S'0.204'
p1773
tp1774
Rp1775
aa(lp1776
g2
(g1156
tp1777
Rp1778
ag2
(g1156
tp1779
Rp1780
ag2
(S'0.220'
p1781
tp1782
Rp1783
aa(lp1784
g2
(g1156
tp1785
Rp1786
ag2
(g1156
tp1787
Rp1788
ag2
(S'0.235'
p1789
tp1790
Rp1791
aa(lp1792
g2
(g1156
tp1793
Rp1794
ag2
(g1156
tp1795
Rp1796
ag2
(S'0.251'
p1797
tp1798
Rp1799
aa(lp1800
g2
(g1156
tp1801
Rp1802
ag2
(g1156
tp1803
Rp1804
ag2
(S'0.267'
p1805
tp1806
Rp1807
aa(lp1808
g2
(g1156
tp1809
Rp1810
ag2
(g1156
tp1811
Rp1812
ag2
(S'0.282'
p1813
tp1814
Rp1815
aa(lp1816
g2
(g1156
tp1817
Rp1818
ag2
(g1156
tp1819
Rp1820
ag2
(S'0.298'
p1821
tp1822
Rp1823
aa(lp1824
g2
(g1156
tp1825
Rp1826
ag2
(g1156
tp1827
Rp1828
ag2
(S'0.314'
p1829
tp1830
Rp1831
aa(lp1832
g2
(g1156
tp1833
Rp1834
ag2
(g1156
tp1835
Rp1836
ag2
(S'0.329'
p1837
tp1838
Rp1839
aa(lp1840
g2
(g1156
tp1841
Rp1842
ag2
(g1156
tp1843
Rp1844
ag2
(S'0.345'
p1845
tp1846
Rp1847
aa(lp1848
g2
(g1156
tp1849
Rp1850
ag2
(g1156
tp1851
Rp1852
ag2
(S'0.361'
p1853
tp1854
Rp1855
aa(lp1856
g2
(g1156
tp1857
Rp1858
ag2
(g1156
tp1859
Rp1860
ag2
(S'0.376'
p1861
tp1862
Rp1863
aa(lp1864
g2
(g1156
tp1865
Rp1866
ag2
(g1156
tp1867
Rp1868
ag2
(S'0.392'
p1869
tp1870
Rp1871
aa(lp1872
g2
(g1156
tp1873
Rp1874
ag2
(g1156
tp1875
Rp1876
ag2
(S'0.408'
p1877
tp1878
Rp1879
aa(lp1880
g2
(g1156
tp1881
Rp1882
ag2
(g1156
tp1883
Rp1884
ag2
(S'0.424'
p1885
tp1886
Rp1887
aa(lp1888
g2
(g1156
tp1889
Rp1890
ag2
(g1156
tp1891
Rp1892
ag2
(S'0.439'
p1893
tp1894
Rp1895
aa(lp1896
g2
(g1156
tp1897
Rp1898
ag2
(g1156
tp1899
Rp1900
ag2
(S'0.455'
p1901
tp1902
Rp1903
aa(lp1904
g2
(g1156
tp1905
Rp1906
ag2
(g1156
tp1907
Rp1908
ag2
(S'0.471'
p1909
tp1910
Rp1911
aa(lp1912
g2
(g1156
tp1913
Rp1914
ag2
(g1156
tp1915
Rp1916
ag2
(S'0.486'
p1917
tp1918
Rp1919
aa(lp1920
g2
(g1156
tp1921
Rp1922
ag2
(g1156
tp1923
Rp1924
ag2
(S'0.502'
p1925
tp1926
Rp1927
aa(lp1928
g2
(g1156
tp1929
Rp1930
ag2
(g1156
tp1931
Rp1932
ag2
(S'0.518'
p1933
tp1934
Rp1935
aa(lp1936
g2
(g1156
tp1937
Rp1938
ag2
(g1156
tp1939
Rp1940
ag2
(S'0.533'
p1941
tp1942
Rp1943
aa(lp1944
g2
(g1156
tp1945
Rp1946
ag2
(g1156
tp1947
Rp1948
ag2
(S'0.549'
p1949
tp1950
Rp1951
aa(lp1952
g2
(g1156
tp1953
Rp1954
ag2
(g1156
tp1955
Rp1956
ag2
(S'0.565'
p1957
tp1958
Rp1959
aa(lp1960
g2
(g1156
tp1961
Rp1962
ag2
(g1156
tp1963
Rp1964
ag2
(S'0.580'
p1965
tp1966
Rp1967
aa(lp1968
g2
(g1156
tp1969
Rp1970
ag2
(g1156
tp1971
Rp1972
ag2
(S'0.596'
p1973
tp1974
Rp1975
aa(lp1976
g2
(g1156
tp1977
Rp1978
ag2
(g1156
tp1979
Rp1980
ag2
(S'0.612'
p1981
tp1982
Rp1983
aa(lp1984
g2
(g1156
tp1985
Rp1986
ag2
(g1156
tp1987
Rp1988
ag2
(S'0.627'
p1989
tp1990
Rp1991
aa(lp1992
g2
(g1156
tp1993
Rp1994
ag2
(g1156
tp1995
Rp1996
ag2
(S'0.643'
p1997
tp1998
Rp1999
aa(lp2000
g2
(g1156
tp2001
Rp2002
ag2
(g1156
tp2003
Rp2004
ag2
(S'0.659'
p2005
tp2006
Rp2007
aa(lp2008
g2
(g1156
tp2009
Rp2010
ag2
(g1156
tp2011
Rp2012
ag2
(S'0.675'
p2013
tp2014
Rp2015
aa(lp2016
g2
(g1156
tp2017
Rp2018
ag2
(g1156
tp2019
Rp2020
ag2
(S'0.690'
p2021
tp2022
Rp2023
aa(lp2024
g2
(g1156
tp2025
Rp2026
ag2
(g1156
tp2027
Rp2028
ag2
(S'0.706'
p2029
tp2030
Rp2031
aa(lp2032
g2
(g1156
tp2033
Rp2034
ag2
(g1156
tp2035
Rp2036
ag2
(S'0.722'
p2037
tp2038
Rp2039
aa(lp2040
g2
(g1156
tp2041
Rp2042
ag2
(g1156
tp2043
Rp2044
ag2
(S'0.737'
p2045
tp2046
Rp2047
aa(lp2048
g2
(g1156
tp2049
Rp2050
ag2
(g1156
tp2051
Rp2052
ag2
(S'0.753'
p2053
tp2054
Rp2055
aa(lp2056
g2
(g1156
tp2057
Rp2058
ag2
(g1156
tp2059
Rp2060
ag2
(S'0.769'
p2061
tp2062
Rp2063
aa(lp2064
g2
(g1156
tp2065
Rp2066
ag2
(g1156
tp2067
Rp2068
ag2
(S'0.784'
p2069
tp2070
Rp2071
aa(lp2072
g2
(g1156
tp2073
Rp2074
ag2
(g1156
tp2075
Rp2076
ag2
(S'0.8'
p2077
tp2078
Rp2079
aa(lp2080
g2
(g1156
tp2081
Rp2082
ag2
(g1156
tp2083
Rp2084
ag2
(S'0.816'
p2085
tp2086
Rp2087
aa(lp2088
g2
(g1156
tp2089
Rp2090
ag2
(g1156
tp2091
Rp2092
ag2
(S'0.831'
p2093
tp2094
Rp2095
aa(lp2096
g2
(g1156
tp2097
Rp2098
ag2
(g1156
tp2099
Rp2100
ag2
(S'0.847'
p2101
tp2102
Rp2103
aa(lp2104
g2
(g1156
tp2105
Rp2106
ag2
(g1156
tp2107
Rp2108
ag2
(S'0.863'
p2109
tp2110
Rp2111
aa(lp2112
g2
(g1156
tp2113
Rp2114
ag2
(g1156
tp2115
Rp2116
ag2
(S'0.878'
p2117
tp2118
Rp2119
aa(lp2120
g2
(g1156
tp2121
Rp2122
ag2
(g1156
tp2123
Rp2124
ag2
(S'0.894'
p2125
tp2126
Rp2127
aa(lp2128
g2
(g1156
tp2129
Rp2130
ag2
(g1156
tp2131
Rp2132
ag2
(S'0.910'
p2133
tp2134
Rp2135
aa(lp2136
g2
(g1156
tp2137
Rp2138
ag2
(g1156
tp2139
Rp2140
ag2
(S'0.925'
p2141
tp2142
Rp2143
aa(lp2144
g2
(g1156
tp2145
Rp2146
ag2
(g1156
tp2147
Rp2148
ag2
(S'0.941'
p2149
tp2150
Rp2151
aa(lp2152
g2
(g1156
tp2153
Rp2154
ag2
(g1156
tp2155
Rp2156
ag2
(S'0.957'
p2157
tp2158
Rp2159
aa(lp2160
g2
(g1156
tp2161
Rp2162
ag2
(g1156
tp2163
Rp2164
ag2
(S'0.973'
p2165
tp2166
Rp2167
aa(lp2168
g2
(g1156
tp2169
Rp2170
ag2
(g1156
tp2171
Rp2172
ag2
(S'0.988'
p2173
tp2174
Rp2175
aa.