(lp0
(lp1
cdecimal
Decimal
p2
(S'0.00781'
p3
tp4
Rp5
ag2
(S'0.00781'
p6
tp7
Rp8
ag2
(S'0.00781'
p9
tp10
Rp11
aa(lp12
g2
(S'0.0156'
p13
tp14
Rp15
ag2
(S'0.0156'
p16
tp17
Rp18
ag2
(S'0.0156'
p19
tp20
Rp21
aa(lp22
g2
(S'0.0234'
p23
tp24
Rp25
ag2
(S'0.0234'
p26
tp27
Rp28
ag2
(S'0.0234'
p29
tp30
Rp31
aa(lp32
g2
(S'0.0313'
p33
tp34
Rp35
ag2
(S'0.0313'
p36
tp37
Rp38
ag2
(S'0.0313'
p39
tp40
Rp41
aa(lp42
g2
(S'0.0391'
p43
tp44
Rp45
ag2
(S'0.0391'
p46
tp47
Rp48
ag2
(S'0.0391'
p49
tp50
Rp51
aa(lp52
g2
(S'0.0469'
p53
tp54
Rp55
ag2
(S'0.0469'
p56
tp57
Rp58
ag2
(S'0.0469'
p59
tp60
Rp61
aa(lp62
g2
(S'0.0547'
p63
tp64
Rp65
ag2
(S'0.0547'
p66
tp67
Rp68
ag2
(S'0.0547'
p69
tp70
Rp71
aa(lp72
g2
(S'0.0625'
p73
tp74
Rp75
ag2
(S'0.0625'
p76
tp77
Rp78
ag2
(S'0.0625'
p79
tp80
Rp81
aa(lp82
g2
(S'0.0703'
p83
tp84
Rp85
ag2
(S'0.0703'
p86
tp87
Rp88
ag2
(S'0.0703'
p89
tp90
Rp91
aa(lp92
g2
(S'0.0781'
p93
tp94
Rp95
ag2
(S'0.0781'
p96
tp97
Rp98
ag2
(S'0.0781'
p99
tp100
Rp101
aa(lp102
g2
(S'0.0859'
p103
tp104
Rp105
ag2
(S'0.0859'
p106
tp107
Rp108
ag2
(S'0.0859'
p109
tp110
Rp111
aa(lp112
g2
(S'0.0938'
p113
tp114
Rp115
ag2
(S'0.0938'
p116
tp117
Rp118
ag2
(S'0.0938'
p119
tp120
Rp121
aa(lp122
g2
(S'0.102'
p123
tp124
Rp125
ag2
(S'0.102'
p126
tp127
Rp128
ag2
(S'0.102'
p129
tp130
Rp131
aa(lp132
g2
(S'0.109'
p133
tp134
Rp135
ag2
(S'0.109'
p136
tp137
Rp138
ag2
(S'0.109'
p139
tp140
Rp141
aa(lp142
g2
(S'0.117'
p143
tp144
Rp145
ag2
(S'0.117'
p146
tp147
Rp148
ag2
(S'0.117'
p149
tp150
Rp151
aa(lp152
g2
(S'0.125'
p153
tp154
Rp155
ag2
(S'0.125'
p156
tp157
Rp158
ag2
(S'0.125'
p159
tp160
Rp161
aa(lp162
g2
(S'0.133'
p163
tp164
Rp165
ag2
(S'0.133'
p166
tp167
Rp168
ag2
(S'0.133'
p169
tp170
Rp171
aa(lp172
g2
(S'0.141'
p173
tp174
Rp175
ag2
(S'0.141'
p176
tp177
Rp178
ag2
(S'0.141'
p179
tp180
Rp181
aa(lp182
g2
(S'0.148'
p183
tp184
Rp185
ag2
(S'0.148'
p186
tp187
Rp188
ag2
(S'0.148'
p189
tp190
Rp191
aa(lp192
g2
(S'0.156'
p193
tp194
Rp195
ag2
(S'0.156'
p196
tp197
Rp198
ag2
(S'0.156'
p199
tp200
Rp201
aa(lp202
g2
(S'0.164'
p203
tp204
Rp205
ag2
(S'0.164'
p206
tp207
Rp208
ag2
(S'0.164'
p209
tp210
Rp211
aa(lp212
g2
(S'0.172'
p213
tp214
Rp215
ag2
(S'0.172'
p216
tp217
Rp218
ag2
(S'0.172'
p219
tp220
Rp221
aa(lp222
g2
(S'0.180'
p223
tp224
Rp225
ag2
(S'0.180'
p226
tp227
Rp228
ag2
(S'0.180'
p229
tp230
Rp231
aa(lp232
g2
(S'0.188'
p233
tp234
Rp235
ag2
(S'0.188'
p236
tp237
Rp238
ag2
(S'0.188'
p239
tp240
Rp241
aa(lp242
g2
(S'0.195'
p243
tp244
Rp245
ag2
(S'0.195'
p246
tp247
Rp248
ag2
(S'0.195'
p249
tp250
Rp251
aa(lp252
g2
(S'0.203'
p253
tp254
Rp255
ag2
(S'0.203'
p256
tp257
Rp258
ag2
(S'0.203'
p259
tp260
Rp261
aa(lp262
g2
(S'0.211'
p263
tp264
Rp265
ag2
(S'0.211'
p266
tp267
Rp268
ag2
(S'0.211'
p269
tp270
Rp271
aa(lp272
g2
(S'0.219'
p273
tp274
Rp275
ag2
(S'0.219'
p276
tp277
Rp278
ag2
(S'0.219'
p279
tp280
Rp281
aa(lp282
g2
(S'0.227'
p283
tp284
Rp285
ag2
(S'0.227'
p286
tp287
Rp288
ag2
(S'0.227'
p289
tp290
Rp291
aa(lp292
g2
(S'0.234'
p293
tp294
Rp295
ag2
(S'0.234'
p296
tp297
Rp298
ag2
(S'0.234'
p299
tp300
Rp301
aa(lp302
g2
(S'0.242'
p303
tp304
Rp305
ag2
(S'0.242'
p306
tp307
Rp308
ag2
(S'0.242'
p309
tp310
Rp311
aa(lp312
g2
(S'0.250'
p313
tp314
Rp315
ag2
(S'0.250'
p316
tp317
Rp318
ag2
(S'0.250'
p319
tp320
Rp321
aa(lp322
g2
(S'0.258'
p323
tp324
Rp325
ag2
(S'0.258'
p326
tp327
Rp328
ag2
(S'0.258'
p329
tp330
Rp331
aa(lp332
g2
(S'0.266'
p333
tp334
Rp335
ag2
(S'0.266'
p336
tp337
Rp338
ag2
(S'0.266'
p339
tp340
Rp341
aa(lp342
g2
(S'0.273'
p343
tp344
Rp345
ag2
(S'0.273'
p346
tp347
Rp348
ag2
(S'0.273'
p349
tp350
Rp351
aa(lp352
g2
(S'0.281'
p353
tp354
Rp355
ag2
(S'0.281'
p356
tp357
Rp358
ag2
(S'0.281'
p359
tp360
Rp361
aa(lp362
g2
(S'0.289'
p363
tp364
Rp365
ag2
(S'0.289'
p366
tp367
Rp368
ag2
(S'0.289'
p369
tp370
Rp371
aa(lp372
g2
(S'0.297'
p373
tp374
Rp375
ag2
(S'0.297'
p376
tp377
Rp378
ag2
(S'0.297'
p379
tp380
Rp381
aa(lp382
g2
(S'0.305'
p383
tp384
Rp385
ag2
(S'0.305'
p386
tp387
Rp388
ag2
(S'0.305'
p389
tp390
Rp391
aa(lp392
g2
(S'0.313'
p393
tp394
Rp395
ag2
(S'0.313'
p396
tp397
Rp398
ag2
(S'0.313'
p399
tp400
Rp401
aa(lp402
g2
(S'0.320'
p403
tp404
Rp405
ag2
(S'0.320'
p406
tp407
Rp408
ag2
(S'0.320'
p409
tp410
Rp411
aa(lp412
g2
(S'0.328'
p413
tp414
Rp415
ag2
(S'0.328'
p416
tp417
Rp418
ag2
(S'0.328'
p419
tp420
Rp421
aa(lp422
g2
(S'0.336'
p423
tp424
Rp425
ag2
(S'0.336'
p426
tp427
Rp428
ag2
(S'0.336'
p429
tp430
Rp431
aa(lp432
g2
(S'0.344'
p433
tp434
Rp435
ag2
(S'0.344'
p436
tp437
Rp438
ag2
(S'0.344'
p439
tp440
Rp441
aa(lp442
g2
(S'0.352'
p443
tp444
Rp445
ag2
(S'0.352'
p446
tp447
Rp448
ag2
(S'0.352'
p449
tp450
Rp451
aa(lp452
g2
(S'0.359'
p453
tp454
Rp455
ag2
(S'0.359'
p456
tp457
Rp458
ag2
(S'0.359'
p459
tp460
Rp461
aa(lp462
g2
(S'0.367'
p463
tp464
Rp465
ag2
(S'0.367'
p466
tp467
Rp468
ag2
(S'0.367'
p469
tp470
Rp471
aa(lp472
g2
(S'0.375'
p473
tp474
Rp475
ag2
(S'0.375'
p476
tp477
Rp478
ag2
(S'0.375'
p479
tp480
Rp481
aa(lp482
g2
(S'0.383'
p483
tp484
Rp485
ag2
(S'0.383'
p486
tp487
Rp488
ag2
(S'0.383'
p489
tp490
Rp491
aa(lp492
g2
(S'0.391'
p493
tp494
Rp495
ag2
(S'0.391'
p496
tp497
Rp498
ag2
(S'0.391'
p499
tp500
Rp501
aa(lp502
g2
(S'0.398'
p503
tp504
Rp505
ag2
(S'0.398'
p506
tp507
Rp508
ag2
(S'0.398'
p509
tp510
Rp511
aa(lp512
g2
(S'0.406'
p513
tp514
Rp515
ag2
(S'0.406'
p516
tp517
Rp518
ag2
(S'0.406'
p519
tp520
Rp521
aa(lp522
g2
(S'0.414'
p523
tp524
Rp525
ag2
(S'0.414'
p526
tp527
Rp528
ag2
(S'0.414'
p529
tp530
Rp531
aa(lp532
g2
(S'0.422'
p533
tp534
Rp535
ag2
(S'0.422'
p536
tp537
Rp538
ag2
(S'0.422'
p539
tp540
Rp541
aa(lp542
g2
(S'0.430'
p543
tp544
Rp545
ag2
(S'0.430'
p546
tp547
Rp548
ag2
(S'0.430'
p549
tp550
Rp551
aa(lp552
g2
(S'0.438'
p553
tp554
Rp555
ag2
(S'0.438'
p556
tp557
Rp558
ag2
(S'0.438'
p559
tp560
Rp561
aa(lp562
g2
(S'0.445'
p563
tp564
Rp565
ag2
(S'0.445'
p566
tp567
Rp568
ag2
(S'0.445'
p569
tp570
Rp571
aa(lp572
g2
(S'0.453'
p573
tp574
Rp575
ag2
(S'0.453'
p576
tp577
Rp578
ag2
(S'0.453'
p579
tp580
Rp581
aa(lp582
g2
(S'0.461'
p583
tp584
Rp585
ag2
(S'0.461'
p586
tp587
Rp588
ag2
(S'0.461'
p589
tp590
Rp591
aa(lp592
g2
(S'0.469'
p593
tp594
Rp595
ag2
(S'0.469'
p596
tp597
Rp598
ag2
(S'0.469'
p599
tp600
Rp601
aa(lp602
g2
(S'0.477'
p603
tp604
Rp605
ag2
(S'0.477'
p606
tp607
Rp608
ag2
(S'0.477'
p609
tp610
Rp611
aa(lp612
g2
(S'0.484'
p613
tp614
Rp615
ag2
(S'0.484'
p616
tp617
Rp618
ag2
(S'0.484'
p619
tp620
Rp621
aa(lp622
g2
(S'0.492'
p623
tp624
Rp625
ag2
(S'0.492'
p626
tp627
Rp628
ag2
(S'0.492'
p629
tp630
Rp631
aa(lp632
g2
(S'0.500'
p633
tp634
Rp635
ag2
(S'0.500'
p636
tp637
Rp638
ag2
(S'0.500'
p639
tp640
Rp641
aa(lp642
g2
(S'0.508'
p643
tp644
Rp645
ag2
(S'0.508'
p646
tp647
Rp648
ag2
(S'0.508'
p649
tp650
Rp651
aa(lp652
g2
(S'0.516'
p653
tp654
Rp655
ag2
(S'0.516'
p656
tp657
Rp658
ag2
(S'0.516'
p659
tp660
Rp661
aa(lp662
g2
(S'0.523'
p663
tp664
Rp665
ag2
(S'0.523'
p666
tp667
Rp668
ag2
(S'0.523'
p669
tp670
Rp671
aa(lp672
g2
(S'0.531'
p673
tp674
Rp675
ag2
(S'0.531'
p676
tp677
Rp678
ag2
(S'0.531'
p679
tp680
Rp681
aa(lp682
g2
(S'0.539'
p683
tp684
Rp685
ag2
(S'0.539'
p686
tp687
Rp688
ag2
(S'0.539'
p689
tp690
Rp691
aa(lp692
g2
(S'0.547'
p693
tp694
Rp695
ag2
(S'0.547'
p696
tp697
Rp698
ag2
(S'0.547'
p699
tp700
Rp701
aa(lp702
g2
(S'0.555'
p703
tp704
Rp705
ag2
(S'0.555'
p706
tp707
Rp708
ag2
(S'0.555'
p709
tp710
Rp711
aa(lp712
g2
(S'0.563'
p713
tp714
Rp715
ag2
(S'0.563'
p716
tp717
Rp718
ag2
(S'0.563'
p719
tp720
Rp721
aa(lp722
g2
(S'0.570'
p723
tp724
Rp725
ag2
(S'0.570'
p726
tp727
Rp728
ag2
(S'0.570'
p729
tp730
Rp731
aa(lp732
g2
(S'0.578'
p733
tp734
Rp735
ag2
(S'0.578'
p736
tp737
Rp738
ag2
(S'0.578'
p739
tp740
Rp741
aa(lp742
g2
(S'0.586'
p743
tp744
Rp745
ag2
(S'0.586'
p746
tp747
Rp748
ag2
(S'0.586'
p749
tp750
Rp751
aa(lp752
g2
(S'0.594'
p753
tp754
Rp755
ag2
(S'0.594'
p756
tp757
Rp758
ag2
(S'0.594'
p759
tp760
Rp761
aa(lp762
g2
(S'0.602'
p763
tp764
Rp765
ag2
(S'0.602'
p766
tp767
Rp768
ag2
(S'0.602'
p769
tp770
Rp771
aa(lp772
g2
(S'0.609'
p773
tp774
Rp775
ag2
(S'0.609'
p776
tp777
Rp778
ag2
(S'0.609'
p779
tp780
Rp781
aa(lp782
g2
(S'0.617'
p783
tp784
Rp785
ag2
(S'0.617'
p786
tp787
Rp788
ag2
(S'0.617'
p789
tp790
Rp791
aa(lp792
g2
(S'0.625'
p793
tp794
Rp795
ag2
(S'0.625'
p796
tp797
Rp798
ag2
(S'0.625'
p799
tp800
Rp801
aa(lp802
g2
(S'0.633'
p803
tp804
Rp805
ag2
(S'0.633'
p806
tp807
Rp808
ag2
(S'0.633'
p809
tp810
Rp811
aa(lp812
g2
(S'0.641'
p813
tp814
Rp815
ag2
(S'0.641'
p816
tp817
Rp818
ag2
(S'0.641'
p819
tp820
Rp821
aa(lp822
g2
(S'0.648'
p823
tp824
Rp825
ag2
(S'0.648'
p826
tp827
Rp828
ag2
(S'0.648'
p829
tp830
Rp831
aa(lp832
g2
(S'0.656'
p833
tp834
Rp835
ag2
(S'0.656'
p836
tp837
Rp838
ag2
(S'0.656'
p839
tp840
Rp841
aa(lp842
g2
(S'0.664'
p843
tp844
Rp845
ag2
(S'0.664'
p846
tp847
Rp848
ag2
(S'0.664'
p849
tp850
Rp851
aa(lp852
g2
(S'0.672'
p853
tp854
Rp855
ag2
(S'0.672'
p856
tp857
Rp858
ag2
(S'0.672'
p859
tp860
Rp861
aa(lp862
g2
(S'0.680'
p863
tp864
Rp865
ag2
(S'0.680'
p866
tp867
Rp868
ag2
(S'0.680'
p869
tp870
Rp871
aa(lp872
g2
(S'0.688'
p873
tp874
Rp875
ag2
(S'0.688'
p876
tp877
Rp878
ag2
(S'0.688'
p879
tp880
Rp881
aa(lp882
g2
(S'0.695'
p883
tp884
Rp885
ag2
(S'0.695'
p886
tp887
Rp888
ag2
(S'0.695'
p889
tp890
Rp891
aa(lp892
g2
(S'0.703'
p893
tp894
Rp895
ag2
(S'0.703'
p896
tp897
Rp898
ag2
(S'0.703'
p899
tp900
Rp901
aa(lp902
g2
(S'0.711'
p903
tp904
Rp905
ag2
(S'0.711'
p906
tp907
Rp908
ag2
(S'0.711'
p909
tp910
Rp911
aa(lp912
g2
(S'0.719'
p913
tp914
Rp915
ag2
(S'0.719'
p916
tp917
Rp918
ag2
(S'0.719'
p919
tp920
Rp921
aa(lp922
g2
(S'0.727'
p923
tp924
Rp925
ag2
(S'0.727'
p926
tp927
Rp928
ag2
(S'0.727'
p929
tp930
Rp931
aa(lp932
g2
(S'0.734'
p933
tp934
Rp935
ag2
(S'0.734'
p936
tp937
Rp938
ag2
(S'0.734'
p939
tp940
Rp941
aa(lp942
g2
(S'0.742'
p943
tp944
Rp945
ag2
(S'0.742'
p946
tp947
Rp948
ag2
(S'0.742'
p949
tp950
Rp951
aa(lp952
g2
(S'0.750'
p953
tp954
Rp955
ag2
(S'0.750'
p956
tp957
Rp958
ag2
(S'0.750'
p959
tp960
Rp961
aa(lp962
g2
(S'0.758'
p963
tp964
Rp965
ag2
(S'0.758'
p966
tp967
Rp968
ag2
(S'0.758'
p969
tp970
Rp971
aa(lp972
g2
(S'0.766'
p973
tp974
Rp975
ag2
(S'0.766'
p976
tp977
Rp978
ag2
(S'0.766'
p979
tp980
Rp981
aa(lp982
g2
(S'0.773'
p983
tp984
Rp985
ag2
(S'0.773'
p986
tp987
Rp988
ag2
(S'0.773'
p989
tp990
Rp991
aa(lp992
g2
(S'0.781'
p993
tp994
Rp995
ag2
(S'0.781'
p996
tp997
Rp998
ag2
(S'0.781'
p999
tp1000
Rp1001
aa(lp1002
g2
(S'0.789'
p1003
tp1004
Rp1005
ag2
(S'0.789'
p1006
tp1007
Rp1008
ag2
(S'0.789'
p1009
tp1010
Rp1011
aa(lp1012
g2
(S'0.797'
p1013
tp1014
Rp1015
ag2
(S'0.797'
p1016
tp1017
Rp1018
ag2
(S'0.797'
p1019
tp1020
Rp1021
aa(lp1022
g2
(S'0.805'
p1023
tp1024
Rp1025
ag2
(S'0.805'
p1026
tp1027
Rp1028
ag2
(S'0.805'
p1029
tp1030
Rp1031
aa(lp1032
g2
(S'0.813'
p1033
tp1034
Rp1035
ag2
(S'0.813'
p1036
tp1037
Rp1038
ag2
(S'0.813'
p1039
tp1040
Rp1041
aa(lp1042
g2
(S'0.820'
p1043
tp1044
Rp1045
ag2
(S'0.820'
p1046
tp1047
Rp1048
ag2
(S'0.820'
p1049
tp1050
Rp1051
aa(lp1052
g2
(S'0.828'
p1053
tp1054
Rp1055
ag2
(S'0.828'
p1056
tp1057
Rp1058
ag2
(S'0.828'
p1059
tp1060
Rp1061
aa(lp1062
g2
(S'0.836'
p1063
tp1064
Rp1065
ag2
(S'0.836'
p1066
tp1067
Rp1068
ag2
(S'0.836'
p1069
tp1070
Rp1071
aa(lp1072
g2
(S'0.844'
p1073
tp1074
Rp1075
ag2
(S'0.844'
p1076
tp1077
Rp1078
ag2
(S'0.844'
p1079
tp1080
Rp1081
aa(lp1082
g2
(S'0.852'
p1083
tp1084
Rp1085
ag2
(S'0.852'
p1086
tp1087
Rp1088
ag2
(S'0.852'
p1089
tp1090
Rp1091
aa(lp1092
g2
(S'0.859'
p1093
tp1094
Rp1095
ag2
(S'0.859'
p1096
tp1097
Rp1098
ag2
(S'0.859'
p1099
tp1100
Rp1101
aa(lp1102
g2
(S'0.867'
p1103
tp1104
Rp1105
ag2
(S'0.867'
p1106
tp1107
Rp1108
ag2
(S'0.867'
p1109
tp1110
Rp1111
aa(lp1112
g2
(S'0.875'
p1113
tp1114
Rp1115
ag2
(S'0.875'
p1116
tp1117
Rp1118
ag2
(S'0.875'
p1119
tp1120
Rp1121
aa(lp1122
g2
(S'0.883'
p1123
tp1124
Rp1125
ag2
(S'0.883'
p1126
tp1127
Rp1128
ag2
(S'0.883'
p1129
tp1130
Rp1131
aa(lp1132
g2
(S'0.891'
p1133
tp1134
Rp1135
ag2
(S'0.891'
p1136
tp1137
Rp1138
ag2
(S'0.891'
p1139
tp1140
Rp1141
aa(lp1142
g2
(S'0.898'
p1143
tp1144
Rp1145
ag2
(S'0.898'
p1146
tp1147
Rp1148
ag2
(S'0.898'
p1149
tp1150
Rp1151
aa(lp1152
g2
(S'0.906'
p1153
tp1154
Rp1155
ag2
(S'0.906'
p1156
tp1157
Rp1158
ag2
(S'0.906'
p1159
tp1160
Rp1161
aa(lp1162
g2
(S'0.914'
p1163
tp1164
Rp1165
ag2
(S'0.914'
p1166
tp1167
Rp1168
ag2
(S'0.914'
p1169
tp1170
Rp1171
aa(lp1172
g2
(S'0.922'
p1173
tp1174
Rp1175
ag2
(S'0.922'
p1176
tp1177
Rp1178
ag2
(S'0.922'
p1179
tp1180
Rp1181
aa(lp1182
g2
(S'0.930'
p1183
tp1184
Rp1185
ag2
(S'0.930'
p1186
tp1187
Rp1188
ag2
(S'0.930'
p1189
tp1190
Rp1191
aa(lp1192
g2
(S'0.938'
p1193
tp1194
Rp1195
ag2
(S'0.938'
p1196
tp1197
Rp1198
ag2
(S'0.938'
p1199
tp1200
Rp1201
aa(lp1202
g2
(S'0.945'
p1203
tp1204
Rp1205
ag2
(S'0.945'
p1206
tp1207
Rp1208
ag2
(S'0.945'
p1209
tp1210
Rp1211
aa(lp1212
g2
(S'0.953'
p1213
tp1214
Rp1215
ag2
(S'0.953'
p1216
tp1217
Rp1218
ag2
(S'0.953'
p1219
tp1220
Rp1221
aa(lp1222
g2
(S'0.961'
p1223
tp1224
Rp1225
ag2
(S'0.961'
p1226
tp1227
Rp1228
ag2
(S'0.961'
p1229
tp1230
Rp1231
aa(lp1232
g2
(S'0.969'
p1233
tp1234
Rp1235
ag2
(S'0.969'
p1236
tp1237
Rp1238
ag2
(S'0.969'
p1239
tp1240
Rp1241
aa(lp1242
g2
(S'0.977'
p1243
tp1244
Rp1245
ag2
(S'0.977'
p1246
tp1247
Rp1248
ag2
(S'0.977'
p1249
tp1250
Rp1251
aa(lp1252
g2
(S'0.984'
p1253
tp1254
Rp1255
ag2
(S'0.984'
p1256
tp1257
Rp1258
ag2
(S'0.984'
p1259
tp1260
Rp1261
aa(lp1262
g2
(S'0.992'
p1263
tp1264
Rp1265
ag2
(S'0.992'
p1266
tp1267
Rp1268
ag2
(S'0.992'
p1269
tp1270
Rp1271
aa(lp1272
g2
(S'1'
p1273
tp1274
Rp1275
ag2
(g1273
tp1276
Rp1277
ag2
(g1273
tp1278
Rp1279
aa.