(lp0
(lp1
cdecimal
Decimal
p2
(S'0'
p3
tp4
Rp5
ag2
(g3
tp6
Rp7
ag2
(g3
tp8
Rp9
aa(lp10
g2
(S'0.0118'
p11
tp12
Rp13
ag2
(g3
tp14
Rp15
ag2
(g3
tp16
Rp17
aa(lp18
g2
(S'0.0235'
p19
tp20
Rp21
ag2
(g3
tp22
Rp23
ag2
(g3
tp24
Rp25
aa(lp26
g2
(S'0.0353'
p27
tp28
Rp29
ag2
(g3
tp30
Rp31
ag2
(g3
tp32
Rp33
aa(lp34
g2
(S'0.0471'
p35
tp36
Rp37
ag2
(g3
tp38
Rp39
ag2
(g3
tp40
Rp41
aa(lp42
g2
(S'0.0588'
p43
tp44
Rp45
ag2
(g3
tp46
Rp47
ag2
(g3
tp48
Rp49
aa(lp50
g2
(S'0.0706'
p51
tp52
Rp53
ag2
(g3
tp54
Rp55
ag2
(g3
tp56
Rp57
aa(lp58
g2
(S'0.0824'
p59
tp60
Rp61
ag2
(g3
tp62
Rp63
ag2
(g3
tp64
Rp65
aa(lp66
g2
(S'0.0941'
p67
tp68
Rp69
ag2
(g3
tp70
Rp71
ag2
(g3
tp72
Rp73
aa(lp74
g2
(S'0.106'
p75
tp76
Rp77
ag2
(g3
tp78
Rp79
ag2
(g3
tp80
Rp81
aa(lp82
g2
(S'0.118'
p83
tp84
Rp85
ag2
(g3
tp86
Rp87
ag2
(g3
tp88
Rp89
aa(lp90
g2
(S'0.129'
p91
tp92
Rp93
ag2
(g3
tp94
Rp95
ag2
(g3
tp96
Rp97
aa(lp98
g2
(S'0.141'
p99
tp100
Rp101
ag2
(g3
tp102
Rp103
ag2
(g3
tp104
Rp105
aa(lp106
g2
(S'0.153'
p107
tp108
Rp109
ag2
(g3
tp110
Rp111
ag2
(g3
tp112
Rp113
aa(lp114
g2
(S'0.165'
p115
tp116
Rp117
ag2
(g3
tp118
Rp119
ag2
(g3
tp120
Rp121
aa(lp122
g2
(S'0.176'
p123
tp124
Rp125
ag2
(g3
tp126
Rp127
ag2
(g3
tp128
Rp129
aa(lp130
g2
(S'0.188'
p131
tp132
Rp133
ag2
(g3
tp134
Rp135
ag2
(g3
tp136
Rp137
aa(lp138
g2
(S'0.2'
p139
tp140
Rp141
ag2
(g3
tp142
Rp143
ag2
(g3
tp144
Rp145
aa(lp146
g2
(S'0.212'
p147
tp148
Rp149
ag2
(g3
tp150
Rp151
ag2
(g3
tp152
Rp153
aa(lp154
g2
(S'0.224'
p155
tp156
Rp157
ag2
(g3
tp158
Rp159
ag2
(g3
tp160
Rp161
aa(lp162
g2
(S'0.235'
p163
tp164
Rp165
ag2
(g3
tp166
Rp167
ag2
(g3
tp168
Rp169
aa(lp170
g2
(S'0.247'
p171
tp172
Rp173
ag2
(g3
tp174
Rp175
ag2
(g3
tp176
Rp177
aa(lp178
g2
(S'0.259'
p179
tp180
Rp181
ag2
(g3
tp182
Rp183
ag2
(g3
tp184
Rp185
aa(lp186
g2
(S'0.271'
p187
tp188
Rp189
ag2
(g3
tp190
Rp191
ag2
(g3
tp192
Rp193
aa(lp194
g2
(S'0.282'
p195
tp196
Rp197
ag2
(g3
tp198
Rp199
ag2
(g3
tp200
Rp201
aa(lp202
g2
(S'0.294'
p203
tp204
Rp205
ag2
(g3
tp206
Rp207
ag2
(g3
tp208
Rp209
aa(lp210
g2
(S'0.306'
p211
tp212
Rp213
ag2
(g3
tp214
Rp215
ag2
(g3
tp216
Rp217
aa(lp218
g2
(S'0.318'
p219
tp220
Rp221
ag2
(g3
tp222
Rp223
ag2
(g3
tp224
Rp225
aa(lp226
g2
(S'0.329'
p227
tp228
Rp229
ag2
(g3
tp230
Rp231
ag2
(g3
tp232
Rp233
aa(lp234
g2
(S'0.341'
p235
tp236
Rp237
ag2
(g3
tp238
Rp239
ag2
(g3
tp240
Rp241
aa(lp242
g2
(S'0.353'
p243
tp244
Rp245
ag2
(g3
tp246
Rp247
ag2
(g3
tp248
Rp249
aa(lp250
g2
(S'0.365'
p251
tp252
Rp253
ag2
(g3
tp254
Rp255
ag2
(g3
tp256
Rp257
aa(lp258
g2
(S'0.376'
p259
tp260
Rp261
ag2
(g3
tp262
Rp263
ag2
(g3
tp264
Rp265
aa(lp266
g2
(S'0.388'
p267
tp268
Rp269
ag2
(g3
tp270
Rp271
ag2
(g3
tp272
Rp273
aa(lp274
g2
(S'0.4'
p275
tp276
Rp277
ag2
(g3
tp278
Rp279
ag2
(g3
tp280
Rp281
aa(lp282
g2
(S'0.412'
p283
tp284
Rp285
ag2
(g3
tp286
Rp287
ag2
(g3
tp288
Rp289
aa(lp290
g2
(S'0.424'
p291
tp292
Rp293
ag2
(g3
tp294
Rp295
ag2
(g3
tp296
Rp297
aa(lp298
g2
(S'0.435'
p299
tp300
Rp301
ag2
(g3
tp302
Rp303
ag2
(g3
tp304
Rp305
aa(lp306
g2
(S'0.447'
p307
tp308
Rp309
ag2
(g3
tp310
Rp311
ag2
(g3
tp312
Rp313
aa(lp314
g2
(S'0.459'
p315
tp316
Rp317
ag2
(g3
tp318
Rp319
ag2
(g3
tp320
Rp321
aa(lp322
g2
(S'0.471'
p323
tp324
Rp325
ag2
(g3
tp326
Rp327
ag2
(g3
tp328
Rp329
aa(lp330
g2
(S'0.482'
p331
tp332
Rp333
ag2
(g3
tp334
Rp335
ag2
(g3
tp336
Rp337
aa(lp338
g2
(S'0.494'
p339
tp340
Rp341
ag2
(g3
tp342
Rp343
ag2
(g3
tp344
Rp345
aa(lp346
g2
(S'0.506'
p347
tp348
Rp349
ag2
(g3
tp350
Rp351
ag2
(g3
tp352
Rp353
aa(lp354
g2
(S'0.518'
p355
tp356
Rp357
ag2
(g3
tp358
Rp359
ag2
(g3
tp360
Rp361
aa(lp362
g2
(S'0.529'
p363
tp364
Rp365
ag2
(g3
tp366
Rp367
ag2
(g3
tp368
Rp369
aa(lp370
g2
(S'0.541'
p371
tp372
Rp373
ag2
(g3
tp374
Rp375
ag2
(g3
tp376
Rp377
aa(lp378
g2
(S'0.553'
p379
tp380
Rp381
ag2
(g3
tp382
Rp383
ag2
(g3
tp384
Rp385
aa(lp386
g2
(S'0.565'
p387
tp388
Rp389
ag2
(g3
tp390
Rp391
ag2
(g3
tp392
Rp393
aa(lp394
g2
(S'0.576'
p395
tp396
Rp397
ag2
(g3
tp398
Rp399
ag2
(g3
tp400
Rp401
aa(lp402
g2
(S'0.588'
p403
tp404
Rp405
ag2
(g3
tp406
Rp407
ag2
(g3
tp408
Rp409
aa(lp410
g2
(S'0.6'
p411
tp412
Rp413
ag2
(g3
tp414
Rp415
ag2
(g3
tp416
Rp417
aa(lp418
g2
(S'0.612'
p419
tp420
Rp421
ag2
(g3
tp422
Rp423
ag2
(g3
tp424
Rp425
aa(lp426
g2
(S'0.624'
p427
tp428
Rp429
ag2
(g3
tp430
Rp431
ag2
(g3
tp432
Rp433
aa(lp434
g2
(S'0.635'
p435
tp436
Rp437
ag2
(g3
tp438
Rp439
ag2
(g3
tp440
Rp441
aa(lp442
g2
(S'0.647'
p443
tp444
Rp445
ag2
(g3
tp446
Rp447
ag2
(g3
tp448
Rp449
aa(lp450
g2
(S'0.659'
p451
tp452
Rp453
ag2
(g3
tp454
Rp455
ag2
(g3
tp456
Rp457
aa(lp458
g2
(S'0.671'
p459
tp460
Rp461
ag2
(g3
tp462
Rp463
ag2
(g3
tp464
Rp465
aa(lp466
g2
(S'0.682'
p467
tp468
Rp469
ag2
(g3
tp470
Rp471
ag2
(g3
tp472
Rp473
aa(lp474
g2
(S'0.694'
p475
tp476
Rp477
ag2
(g3
tp478
Rp479
ag2
(g3
tp480
Rp481
aa(lp482
g2
(S'0.706'
p483
tp484
Rp485
ag2
(g3
tp486
Rp487
ag2
(g3
tp488
Rp489
aa(lp490
g2
(S'0.718'
p491
tp492
Rp493
ag2
(g3
tp494
Rp495
ag2
(g3
tp496
Rp497
aa(lp498
g2
(S'0.729'
p499
tp500
Rp501
ag2
(g3
tp502
Rp503
ag2
(g3
tp504
Rp505
aa(lp506
g2
(S'0.741'
p507
tp508
Rp509
ag2
(g3
tp510
Rp511
ag2
(g3
tp512
Rp513
aa(lp514
g2
(S'0.753'
p515
tp516
Rp517
ag2
(g3
tp518
Rp519
ag2
(g3
tp520
Rp521
aa(lp522
g2
(S'0.765'
p523
tp524
Rp525
ag2
(g3
tp526
Rp527
ag2
(g3
tp528
Rp529
aa(lp530
g2
(S'0.776'
p531
tp532
Rp533
ag2
(g3
tp534
Rp535
ag2
(g3
tp536
Rp537
aa(lp538
g2
(S'0.788'
p539
tp540
Rp541
ag2
(g3
tp542
Rp543
ag2
(g3
tp544
Rp545
aa(lp546
g2
(S'0.8'
p547
tp548
Rp549
ag2
(g3
tp550
Rp551
ag2
(g3
tp552
Rp553
aa(lp554
g2
(S'0.812'
p555
tp556
Rp557
ag2
(g3
tp558
Rp559
ag2
(g3
tp560
Rp561
aa(lp562
g2
(S'0.824'
p563
tp564
Rp565
ag2
(g3
tp566
Rp567
ag2
(g3
tp568
Rp569
aa(lp570
g2
(S'0.835'
p571
tp572
Rp573
ag2
(g3
tp574
Rp575
ag2
(g3
tp576
Rp577
aa(lp578
g2
(S'0.847'
p579
tp580
Rp581
ag2
(g3
tp582
Rp583
ag2
(g3
tp584
Rp585
aa(lp586
g2
(S'0.859'
p587
tp588
Rp589
ag2
(g3
tp590
Rp591
ag2
(g3
tp592
Rp593
aa(lp594
g2
(S'0.871'
p595
tp596
Rp597
ag2
(g3
tp598
Rp599
ag2
(g3
tp600
Rp601
aa(lp602
g2
(S'0.882'
p603
tp604
Rp605
ag2
(g3
tp606
Rp607
ag2
(g3
tp608
Rp609
aa(lp610
g2
(S'0.894'
p611
tp612
Rp613
ag2
(g3
tp614
Rp615
ag2
(g3
tp616
Rp617
aa(lp618
g2
(S'0.906'
p619
tp620
Rp621
ag2
(g3
tp622
Rp623
ag2
(g3
tp624
Rp625
aa(lp626
g2
(S'0.918'
p627
tp628
Rp629
ag2
(g3
tp630
Rp631
ag2
(g3
tp632
Rp633
aa(lp634
g2
(S'0.929'
p635
tp636
Rp637
ag2
(g3
tp638
Rp639
ag2
(g3
tp640
Rp641
aa(lp642
g2
(S'0.941'
p643
tp644
Rp645
ag2
(g3
tp646
Rp647
ag2
(g3
tp648
Rp649
aa(lp650
g2
(S'0.953'
p651
tp652
Rp653
ag2
(g3
tp654
Rp655
ag2
(g3
tp656
Rp657
aa(lp658
g2
(S'0.965'
p659
tp660
Rp661
ag2
(g3
tp662
Rp663
ag2
(g3
tp664
Rp665
aa(lp666
g2
(S'0.976'
p667
tp668
Rp669
ag2
(g3
tp670
Rp671
ag2
(g3
tp672
Rp673
aa(lp674
g2
(S'0.988'
p675
tp676
Rp677
ag2
(g3
tp678
Rp679
ag2
(g3
tp680
Rp681
aa(lp682
g2
(S'1'
p683
tp684
Rp685
ag2
(g3
tp686
Rp687
ag2
(g3
tp688
Rp689
aa(lp690
g2
(g683
tp691
Rp692
ag2
(S'0.00784'
p693
tp694
Rp695
ag2
(g3
tp696
Rp697
aa(lp698
g2
(g683
tp699
Rp700
ag2
(S'0.0196'
p701
tp702
Rp703
ag2
(g3
tp704
Rp705
aa(lp706
g2
(g683
tp707
Rp708
ag2
(S'0.0314'
p709
tp710
Rp711
ag2
(g3
tp712
Rp713
aa(lp714
g2
(g683
tp715
Rp716
ag2
(S'0.0431'
p717
tp718
Rp719
ag2
(g3
tp720
Rp721
aa(lp722
g2
(g683
tp723
Rp724
ag2
(S'0.0549'
p725
tp726
Rp727
ag2
(g3
tp728
Rp729
aa(lp730
g2
(g683
tp731
Rp732
ag2
(S'0.0667'
p733
tp734
Rp735
ag2
(g3
tp736
Rp737
aa(lp738
g2
(g683
tp739
Rp740
ag2
(S'0.0784'
p741
tp742
Rp743
ag2
(g3
tp744
Rp745
aa(lp746
g2
(g683
tp747
Rp748
ag2
(S'0.0902'
p749
tp750
Rp751
ag2
(g3
tp752
Rp753
aa(lp754
g2
(g683
tp755
Rp756
ag2
(S'0.102'
p757
tp758
Rp759
ag2
(g3
tp760
Rp761
aa(lp762
g2
(g683
tp763
Rp764
ag2
(S'0.114'
p765
tp766
Rp767
ag2
(g3
tp768
Rp769
aa(lp770
g2
(g683
tp771
Rp772
ag2
(S'0.125'
p773
tp774
Rp775
ag2
(g3
tp776
Rp777
aa(lp778
g2
(g683
tp779
Rp780
ag2
(S'0.137'
p781
tp782
Rp783
ag2
(g3
tp784
Rp785
aa(lp786
g2
(g683
tp787
Rp788
ag2
(S'0.149'
p789
tp790
Rp791
ag2
(g3
tp792
Rp793
aa(lp794
g2
(g683
tp795
Rp796
ag2
(S'0.161'
p797
tp798
Rp799
ag2
(g3
tp800
Rp801
aa(lp802
g2
(g683
tp803
Rp804
ag2
(S'0.173'
p805
tp806
Rp807
ag2
(g3
tp808
Rp809
aa(lp810
g2
(g683
tp811
Rp812
ag2
(S'0.184'
p813
tp814
Rp815
ag2
(g3
tp816
Rp817
aa(lp818
g2
(g683
tp819
Rp820
ag2
(S'0.196'
p821
tp822
Rp823
ag2
(g3
tp824
Rp825
aa(lp826
g2
(g683
tp827
Rp828
ag2
(S'0.208'
p829
tp830
Rp831
ag2
(g3
tp832
Rp833
aa(lp834
g2
(g683
tp835
Rp836
ag2
(S'0.220'
p837
tp838
Rp839
ag2
(g3
tp840
Rp841
aa(lp842
g2
(g683
tp843
Rp844
ag2
(S'0.231'
p845
tp846
Rp847
ag2
(g3
tp848
Rp849
aa(lp850
g2
(g683
tp851
Rp852
ag2
(S'0.243'
p853
tp854
Rp855
ag2
(g3
tp856
Rp857
aa(lp858
g2
(g683
tp859
Rp860
ag2
(S'0.255'
p861
tp862
Rp863
ag2
(g3
tp864
Rp865
aa(lp866
g2
(g683
tp867
Rp868
ag2
(S'0.267'
p869
tp870
Rp871
ag2
(g3
tp872
Rp873
aa(lp874
g2
(g683
tp875
Rp876
ag2
(S'0.278'
p877
tp878
Rp879
ag2
(g3
tp880
Rp881
aa(lp882
g2
(g683
tp883
Rp884
ag2
(S'0.290'
p885
tp886
Rp887
ag2
(g3
tp888
Rp889
aa(lp890
g2
(g683
tp891
Rp892
ag2
(S'0.302'
p893
tp894
Rp895
ag2
(g3
tp896
Rp897
aa(lp898
g2
(g683
tp899
Rp900
ag2
(S'0.314'
p901
tp902
Rp903
ag2
(g3
tp904
Rp905
aa(lp906
g2
(g683
tp907
Rp908
ag2
(S'0.325'
p909
tp910
Rp911
ag2
(g3
tp912
Rp913
aa(lp914
g2
(g683
tp915
Rp916
ag2
(S'0.337'
p917
tp918
Rp919
ag2
(g3
tp920
Rp921
aa(lp922
g2
(g683
tp923
Rp924
ag2
(S'0.349'
p925
tp926
Rp927
ag2
(g3
tp928
Rp929
aa(lp930
g2
(g683
tp931
Rp932
ag2
(S'0.361'
p933
tp934
Rp935
ag2
(g3
tp936
Rp937
aa(lp938
g2
(g683
tp939
Rp940
ag2
(S'0.373'
p941
tp942
Rp943
ag2
(g3
tp944
Rp945
aa(lp946
g2
(g683
tp947
Rp948
ag2
(S'0.384'
p949
tp950
Rp951
ag2
(g3
tp952
Rp953
aa(lp954
g2
(g683
tp955
Rp956
ag2
(S'0.396'
p957
tp958
Rp959
ag2
(g3
tp960
Rp961
aa(lp962
g2
(g683
tp963
Rp964
ag2
(S'0.408'
p965
tp966
Rp967
ag2
(g3
tp968
Rp969
aa(lp970
g2
(g683
tp971
Rp972
ag2
(S'0.420'
p973
tp974
Rp975
ag2
(g3
tp976
Rp977
aa(lp978
g2
(g683
tp979
Rp980
ag2
(S'0.431'
p981
tp982
Rp983
ag2
(g3
tp984
Rp985
aa(lp986
g2
(g683
tp987
Rp988
ag2
(S'0.443'
p989
tp990
Rp991
ag2
(g3
tp992
Rp993
aa(lp994
g2
(g683
tp995
Rp996
ag2
(S'0.455'
p997
tp998
Rp999
ag2
(g3
tp1000
Rp1001
aa(lp1002
g2
(g683
tp1003
Rp1004
ag2
(S'0.467'
p1005
tp1006
Rp1007
ag2
(g3
tp1008
Rp1009
aa(lp1010
g2
(g683
tp1011
Rp1012
ag2
(S'0.478'
p1013
tp1014
Rp1015
ag2
(g3
tp1016
Rp1017
aa(lp1018
g2
(g683
tp1019
Rp1020
ag2
(S'0.490'
p1021
tp1022
Rp1023
ag2
(g3
tp1024
Rp1025
aa(lp1026
g2
(g683
tp1027
Rp1028
ag2
(S'0.502'
p1029
tp1030
Rp1031
ag2
(g3
tp1032
Rp1033
aa(lp1034
g2
(g683
tp1035
Rp1036
ag2
(S'0.514'
p1037
tp1038
Rp1039
ag2
(g3
tp1040
Rp1041
aa(lp1042
g2
(g683
tp1043
Rp1044
ag2
(S'0.525'
p1045
tp1046
Rp1047
ag2
(g3
tp1048
Rp1049
aa(lp1050
g2
(g683
tp1051
Rp1052
ag2
(S'0.537'
p1053
tp1054
Rp1055
ag2
(g3
tp1056
Rp1057
aa(lp1058
g2
(g683
tp1059
Rp1060
ag2
(S'0.549'
p1061
tp1062
Rp1063
ag2
(g3
tp1064
Rp1065
aa(lp1066
g2
(g683
tp1067
Rp1068
ag2
(S'0.561'
p1069
tp1070
Rp1071
ag2
(g3
tp1072
Rp1073
aa(lp1074
g2
(g683
tp1075
Rp1076
ag2
(S'0.573'
p1077
tp1078
Rp1079
ag2
(g3
tp1080
Rp1081
aa(lp1082
g2
(g683
tp1083
Rp1084
ag2
(S'0.584'
p1085
tp1086
Rp1087
ag2
(g3
tp1088
Rp1089
aa(lp1090
g2
(g683
tp1091
Rp1092
ag2
(S'0.596'
p1093
tp1094
Rp1095
ag2
(g3
tp1096
Rp1097
aa(lp1098
g2
(g683
tp1099
Rp1100
ag2
(S'0.608'
p1101
tp1102
Rp1103
ag2
(g3
tp1104
Rp1105
aa(lp1106
g2
(g683
tp1107
Rp1108
ag2
(S'0.620'
p1109
tp1110
Rp1111
ag2
(g3
tp1112
Rp1113
aa(lp1114
g2
(g683
tp1115
Rp1116
ag2
(S'0.631'
p1117
tp1118
Rp1119
ag2
(g3
tp1120
Rp1121
aa(lp1122
g2
(g683
tp1123
Rp1124
ag2
(S'0.643'
p1125
tp1126
Rp1127
ag2
(g3
tp1128
Rp1129
aa(lp1130
g2
(g683
tp1131
Rp1132
ag2
(S'0.655'
p1133
tp1134
Rp1135
ag2
(g3
tp1136
Rp1137
aa(lp1138
g2
(g683
tp1139
Rp1140
ag2
(S'0.667'
p1141
tp1142
Rp1143
ag2
(g3
tp1144
Rp1145
aa(lp1146
g2
(g683
tp1147
Rp1148
ag2
(S'0.678'
p1149
tp1150
Rp1151
ag2
(g3
tp1152
Rp1153
aa(lp1154
g2
(g683
tp1155
Rp1156
ag2
(S'0.690'
p1157
tp1158
Rp1159
ag2
(g3
tp1160
Rp1161
aa(lp1162
g2
(g683
tp1163
Rp1164
ag2
(S'0.702'
p1165
tp1166
Rp1167
ag2
(g3
tp1168
Rp1169
aa(lp1170
g2
(g683
tp1171
Rp1172
ag2
(S'0.714'
p1173
tp1174
Rp1175
ag2
(g3
tp1176
Rp1177
aa(lp1178
g2
(g683
tp1179
Rp1180
ag2
(S'0.725'
p1181
tp1182
Rp1183
ag2
(g3
tp1184
Rp1185
aa(lp1186
g2
(g683
tp1187
Rp1188
ag2
(S'0.737'
p1189
tp1190
Rp1191
ag2
(g3
tp1192
Rp1193
aa(lp1194
g2
(g683
tp1195
Rp1196
ag2
(S'0.749'
p1197
tp1198
Rp1199
ag2
(g3
tp1200
Rp1201
aa(lp1202
g2
(g683
tp1203
Rp1204
ag2
(S'0.761'
p1205
tp1206
Rp1207
ag2
(g3
tp1208
Rp1209
aa(lp1210
g2
(g683
tp1211
Rp1212
ag2
(S'0.773'
p1213
tp1214
Rp1215
ag2
(g3
tp1216
Rp1217
aa(lp1218
g2
(g683
tp1219
Rp1220
ag2
(S'0.784'
p1221
tp1222
Rp1223
ag2
(g3
tp1224
Rp1225
aa(lp1226
g2
(g683
tp1227
Rp1228
ag2
(S'0.796'
p1229
tp1230
Rp1231
ag2
(g3
tp1232
Rp1233
aa(lp1234
g2
(g683
tp1235
Rp1236
ag2
(S'0.808'
p1237
tp1238
Rp1239
ag2
(g3
tp1240
Rp1241
aa(lp1242
g2
(g683
tp1243
Rp1244
ag2
(S'0.820'
p1245
tp1246
Rp1247
ag2
(g3
tp1248
Rp1249
aa(lp1250
g2
(g683
tp1251
Rp1252
ag2
(S'0.831'
p1253
tp1254
Rp1255
ag2
(g3
tp1256
Rp1257
aa(lp1258
g2
(g683
tp1259
Rp1260
ag2
(S'0.843'
p1261
tp1262
Rp1263
ag2
(g3
tp1264
Rp1265
aa(lp1266
g2
(g683
tp1267
Rp1268
ag2
(S'0.855'
p1269
tp1270
Rp1271
ag2
(g3
tp1272
Rp1273
aa(lp1274
g2
(g683
tp1275
Rp1276
ag2
(S'0.867'
p1277
tp1278
Rp1279
ag2
(g3
tp1280
Rp1281
aa(lp1282
g2
(g683
tp1283
Rp1284
ag2
(S'0.878'
p1285
tp1286
Rp1287
ag2
(g3
tp1288
Rp1289
aa(lp1290
g2
(g683
tp1291
Rp1292
ag2
(S'0.890'
p1293
tp1294
Rp1295
ag2
(g3
tp1296
Rp1297
aa(lp1298
g2
(g683
tp1299
Rp1300
ag2
(S'0.902'
p1301
tp1302
Rp1303
ag2
(g3
tp1304
Rp1305
aa(lp1306
g2
(g683
tp1307
Rp1308
ag2
(S'0.914'
p1309
tp1310
Rp1311
ag2
(g3
tp1312
Rp1313
aa(lp1314
g2
(g683
tp1315
Rp1316
ag2
(S'0.925'
p1317
tp1318
Rp1319
ag2
(g3
tp1320
Rp1321
aa(lp1322
g2
(g683
tp1323
Rp1324
ag2
(S'0.937'
p1325
tp1326
Rp1327
ag2
(g3
tp1328
Rp1329
aa(lp1330
g2
(g683
tp1331
Rp1332
ag2
(S'0.949'
p1333
tp1334
Rp1335
ag2
(g3
tp1336
Rp1337
aa(lp1338
g2
(g683
tp1339
Rp1340
ag2
(S'0.961'
p1341
tp1342
Rp1343
ag2
(g3
tp1344
Rp1345
aa(lp1346
g2
(g683
tp1347
Rp1348
ag2
(S'0.973'
p1349
tp1350
Rp1351
ag2
(g3
tp1352
Rp1353
aa(lp1354
g2
(g683
tp1355
Rp1356
ag2
(S'0.984'
p1357
tp1358
Rp1359
ag2
(g3
tp1360
Rp1361
aa(lp1362
g2
(g683
tp1363
Rp1364
ag2
(S'0.996'
p1365
tp1366
Rp1367
ag2
(g3
tp1368
Rp1369
aa(lp1370
g2
(g683
tp1371
Rp1372
ag2
(g683
tp1373
Rp1374
ag2
(S'0.00392'
p1375
tp1376
Rp1377
aa(lp1378
g2
(g683
tp1379
Rp1380
ag2
(g683
tp1381
Rp1382
ag2
(S'0.0157'
p1383
tp1384
Rp1385
aa(lp1386
g2
(g683
tp1387
Rp1388
ag2
(g683
tp1389
Rp1390
ag2
(S'0.0275'
p1391
tp1392
Rp1393
aa(lp1394
g2
(g683
tp1395
Rp1396
ag2
(g683
tp1397
Rp1398
ag2
(S'0.0392'
p1399
tp1400
Rp1401
aa(lp1402
g2
(g683
tp1403
Rp1404
ag2
(g683
tp1405
Rp1406
ag2
(S'0.0510'
p1407
tp1408
Rp1409
aa(lp1410
g2
(g683
tp1411
Rp1412
ag2
(g683
tp1413
Rp1414
ag2
(S'0.0627'
p1415
tp1416
Rp1417
aa(lp1418
g2
(g683
tp1419
Rp1420
ag2
(g683
tp1421
Rp1422
ag2
(S'0.0745'
p1423
tp1424
Rp1425
aa(lp1426
g2
(g683
tp1427
Rp1428
ag2
(g683
tp1429
Rp1430
ag2
(S'0.0863'
p1431
tp1432
Rp1433
aa(lp1434
g2
(g683
tp1435
Rp1436
ag2
(g683
tp1437
Rp1438
ag2
(S'0.0980'
p1439
tp1440
Rp1441
aa(lp1442
g2
(g683
tp1443
Rp1444
ag2
(g683
tp1445
Rp1446
ag2
(S'0.110'
p1447
tp1448
Rp1449
aa(lp1450
g2
(g683
tp1451
Rp1452
ag2
(g683
tp1453
Rp1454
ag2
(S'0.122'
p1455
tp1456
Rp1457
aa(lp1458
g2
(g683
tp1459
Rp1460
ag2
(g683
tp1461
Rp1462
ag2
(S'0.133'
p1463
tp1464
Rp1465
aa(lp1466
g2
(g683
tp1467
Rp1468
ag2
(g683
tp1469
Rp1470
ag2
(S'0.145'
p1471
tp1472
Rp1473
aa(lp1474
g2
(g683
tp1475
Rp1476
ag2
(g683
tp1477
Rp1478
ag2
(S'0.157'
p1479
tp1480
Rp1481
aa(lp1482
g2
(g683
tp1483
Rp1484
ag2
(g683
tp1485
Rp1486
ag2
(S'0.169'
p1487
tp1488
Rp1489
aa(lp1490
g2
(g683
tp1491
Rp1492
ag2
(g683
tp1493
Rp1494
ag2
(S'0.180'
p1495
tp1496
Rp1497
aa(lp1498
g2
(g683
tp1499
Rp1500
ag2
(g683
tp1501
Rp1502
ag2
(S'0.192'
p1503
tp1504
Rp1505
aa(lp1506
g2
(g683
tp1507
Rp1508
ag2
(g683
tp1509
Rp1510
ag2
(S'0.204'
p1511
tp1512
Rp1513
aa(lp1514
g2
(g683
tp1515
Rp1516
ag2
(g683
tp1517
Rp1518
ag2
(S'0.216'
p1519
tp1520
Rp1521
aa(lp1522
g2
(g683
tp1523
Rp1524
ag2
(g683
tp1525
Rp1526
ag2
(S'0.227'
p1527
tp1528
Rp1529
aa(lp1530
g2
(g683
tp1531
Rp1532
ag2
(g683
tp1533
Rp1534
ag2
(S'0.239'
p1535
tp1536
Rp1537
aa(lp1538
g2
(g683
tp1539
Rp1540
ag2
(g683
tp1541
Rp1542
ag2
(S'0.251'
p1543
tp1544
Rp1545
aa(lp1546
g2
(g683
tp1547
Rp1548
ag2
(g683
tp1549
Rp1550
ag2
(S'0.263'
p1551
tp1552
Rp1553
aa(lp1554
g2
(g683
tp1555
Rp1556
ag2
(g683
tp1557
Rp1558
ag2
(S'0.275'
p1559
tp1560
Rp1561
aa(lp1562
g2
(g683
tp1563
Rp1564
ag2
(g683
tp1565
Rp1566
ag2
(S'0.286'
p1567
tp1568
Rp1569
aa(lp1570
g2
(g683
tp1571
Rp1572
ag2
(g683
tp1573
Rp1574
ag2
(S'0.298'
p1575
tp1576
Rp1577
aa(lp1578
g2
(g683
tp1579
Rp1580
ag2
(g683
tp1581
Rp1582
ag2
(S'0.310'
p1583
tp1584
Rp1585
aa(lp1586
g2
(g683
tp1587
Rp1588
ag2
(g683
tp1589
Rp1590
ag2
(S'0.322'
p1591
tp1592
Rp1593
aa(lp1594
g2
(g683
tp1595
Rp1596
ag2
(g683
tp1597
Rp1598
ag2
(S'0.333'
p1599
tp1600
Rp1601
aa(lp1602
g2
(g683
tp1603
Rp1604
ag2
(g683
tp1605
Rp1606
ag2
(S'0.345'
p1607
tp1608
Rp1609
aa(lp1610
g2
(g683
tp1611
Rp1612
ag2
(g683
tp1613
Rp1614
ag2
(S'0.357'
p1615
tp1616
Rp1617
aa(lp1618
g2
(g683
tp1619
Rp1620
ag2
(g683
tp1621
Rp1622
ag2
(S'0.369'
p1623
tp1624
Rp1625
aa(lp1626
g2
(g683
tp1627
Rp1628
ag2
(g683
tp1629
Rp1630
ag2
(S'0.380'
p1631
tp1632
Rp1633
aa(lp1634
g2
(g683
tp1635
Rp1636
ag2
(g683
tp1637
Rp1638
ag2
(S'0.392'
p1639
tp1640
Rp1641
aa(lp1642
g2
(g683
tp1643
Rp1644
ag2
(g683
tp1645
Rp1646
ag2
(S'0.404'
p1647
tp1648
Rp1649
aa(lp1650
g2
(g683
tp1651
Rp1652
ag2
(g683
tp1653
Rp1654
ag2
(S'0.416'
p1655
tp1656
Rp1657
aa(lp1658
g2
(g683
tp1659
Rp1660
ag2
(g683
tp1661
Rp1662
ag2
(S'0.427'
p1663
tp1664
Rp1665
aa(lp1666
g2
(g683
tp1667
Rp1668
ag2
(g683
tp1669
Rp1670
ag2
(S'0.439'
p1671
tp1672
Rp1673
aa(lp1674
g2
(g683
tp1675
Rp1676
ag2
(g683
tp1677
Rp1678
ag2
(S'0.451'
p1679
tp1680
Rp1681
aa(lp1682
g2
(g683
tp1683
Rp1684
ag2
(g683
tp1685
Rp1686
ag2
(S'0.463'
p1687
tp1688
Rp1689
aa(lp1690
g2
(g683
tp1691
Rp1692
ag2
(g683
tp1693
Rp1694
ag2
(S'0.475'
p1695
tp1696
Rp1697
aa(lp1698
g2
(g683
tp1699
Rp1700
ag2
(g683
tp1701
Rp1702
ag2
(S'0.486'
p1703
tp1704
Rp1705
aa(lp1706
g2
(g683
tp1707
Rp1708
ag2
(g683
tp1709
Rp1710
ag2
(S'0.498'
p1711
tp1712
Rp1713
aa(lp1714
g2
(g683
tp1715
Rp1716
ag2
(g683
tp1717
Rp1718
ag2
(S'0.510'
p1719
tp1720
Rp1721
aa(lp1722
g2
(g683
tp1723
Rp1724
ag2
(g683
tp1725
Rp1726
ag2
(S'0.522'
p1727
tp1728
Rp1729
aa(lp1730
g2
(g683
tp1731
Rp1732
ag2
(g683
tp1733
Rp1734
ag2
(S'0.533'
p1735
tp1736
Rp1737
aa(lp1738
g2
(g683
tp1739
Rp1740
ag2
(g683
tp1741
Rp1742
ag2
(S'0.545'
p1743
tp1744
Rp1745
aa(lp1746
g2
(g683
tp1747
Rp1748
ag2
(g683
tp1749
Rp1750
ag2
(S'0.557'
p1751
tp1752
Rp1753
aa(lp1754
g2
(g683
tp1755
Rp1756
ag2
(g683
tp1757
Rp1758
ag2
(S'0.569'
p1759
tp1760
Rp1761
aa(lp1762
g2
(g683
tp1763
Rp1764
ag2
(g683
tp1765
Rp1766
ag2
(S'0.580'
p1767
tp1768
Rp1769
aa(lp1770
g2
(g683
tp1771
Rp1772
ag2
(g683
tp1773
Rp1774
ag2
(S'0.592'
p1775
tp1776
Rp1777
aa(lp1778
g2
(g683
tp1779
Rp1780
ag2
(g683
tp1781
Rp1782
ag2
(S'0.604'
p1783
tp1784
Rp1785
aa(lp1786
g2
(g683
tp1787
Rp1788
ag2
(g683
tp1789
Rp1790
ag2
(S'0.616'
p1791
tp1792
Rp1793
aa(lp1794
g2
(g683
tp1795
Rp1796
ag2
(g683
tp1797
Rp1798
ag2
(S'0.627'
p1799
tp1800
Rp1801
aa(lp1802
g2
(g683
tp1803
Rp1804
ag2
(g683
tp1805
Rp1806
ag2
(S'0.639'
p1807
tp1808
Rp1809
aa(lp1810
g2
(g683
tp1811
Rp1812
ag2
(g683
tp1813
Rp1814
ag2
(S'0.651'
p1815
tp1816
Rp1817
aa(lp1818
g2
(g683
tp1819
Rp1820
ag2
(g683
tp1821
Rp1822
ag2
(S'0.663'
p1823
tp1824
Rp1825
aa(lp1826
g2
(g683
tp1827
Rp1828
ag2
(g683
tp1829
Rp1830
ag2
(S'0.675'
p1831
tp1832
Rp1833
aa(lp1834
g2
(g683
tp1835
Rp1836
ag2
(g683
tp1837
Rp1838
ag2
(S'0.686'
p1839
tp1840
Rp1841
aa(lp1842
g2
(g683
tp1843
Rp1844
ag2
(g683
tp1845
Rp1846
ag2
(S'0.698'
p1847
tp1848
Rp1849
aa(lp1850
g2
(g683
tp1851
Rp1852
ag2
(g683
tp1853
Rp1854
ag2
(S'0.710'
p1855
tp1856
Rp1857
aa(lp1858
g2
(g683
tp1859
Rp1860
ag2
(g683
tp1861
Rp1862
ag2
(S'0.722'
p1863
tp1864
Rp1865
aa(lp1866
g2
(g683
tp1867
Rp1868
ag2
(g683
tp1869
Rp1870
ag2
(S'0.733'
p1871
tp1872
Rp1873
aa(lp1874
g2
(g683
tp1875
Rp1876
ag2
(g683
tp1877
Rp1878
ag2
(S'0.745'
p1879
tp1880
Rp1881
aa(lp1882
g2
(g683
tp1883
Rp1884
ag2
(g683
tp1885
Rp1886
ag2
(S'0.757'
p1887
tp1888
Rp1889
aa(lp1890
g2
(g683
tp1891
Rp1892
ag2
(g683
tp1893
Rp1894
ag2
(S'0.769'
p1895
tp1896
Rp1897
aa(lp1898
g2
(g683
tp1899
Rp1900
ag2
(g683
tp1901
Rp1902
ag2
(S'0.780'
p1903
tp1904
Rp1905
aa(lp1906
g2
(g683
tp1907
Rp1908
ag2
(g683
tp1909
Rp1910
ag2
(S'0.792'
p1911
tp1912
Rp1913
aa(lp1914
g2
(g683
tp1915
Rp1916
ag2
(g683
tp1917
Rp1918
ag2
(S'0.804'
p1919
tp1920
Rp1921
aa(lp1922
g2
(g683
tp1923
Rp1924
ag2
(g683
tp1925
Rp1926
ag2
(S'0.816'
p1927
tp1928
Rp1929
aa(lp1930
g2
(g683
tp1931
Rp1932
ag2
(g683
tp1933
Rp1934
ag2
(S'0.827'
p1935
tp1936
Rp1937
aa(lp1938
g2
(g683
tp1939
Rp1940
ag2
(g683
tp1941
Rp1942
ag2
(S'0.839'
p1943
tp1944
Rp1945
aa(lp1946
g2
(g683
tp1947
Rp1948
ag2
(g683
tp1949
Rp1950
ag2
(S'0.851'
p1951
tp1952
Rp1953
aa(lp1954
g2
(g683
tp1955
Rp1956
ag2
(g683
tp1957
Rp1958
ag2
(S'0.863'
p1959
tp1960
Rp1961
aa(lp1962
g2
(g683
tp1963
Rp1964
ag2
(g683
tp1965
Rp1966
ag2
(S'0.875'
p1967
tp1968
Rp1969
aa(lp1970
g2
(g683
tp1971
Rp1972
ag2
(g683
tp1973
Rp1974
ag2
(S'0.886'
p1975
tp1976
Rp1977
aa(lp1978
g2
(g683
tp1979
Rp1980
ag2
(g683
tp1981
Rp1982
ag2
(S'0.898'
p1983
tp1984
Rp1985
aa(lp1986
g2
(g683
tp1987
Rp1988
ag2
(g683
tp1989
Rp1990
ag2
(S'0.910'
p1991
tp1992
Rp1993
aa(lp1994
g2
(g683
tp1995
Rp1996
ag2
(g683
tp1997
Rp1998
ag2
(S'0.922'
p1999
tp2000
Rp2001
aa(lp2002
g2
(g683
tp2003
Rp2004
ag2
(g683
tp2005
Rp2006
ag2
(S'0.933'
p2007
tp2008
Rp2009
aa(lp2010
g2
(g683
tp2011
Rp2012
ag2
(g683
tp2013
Rp2014
ag2
(S'0.945'
p2015
tp2016
Rp2017
aa(lp2018
g2
(g683
tp2019
Rp2020
ag2
(g683
tp2021
Rp2022
ag2
(S'0.957'
p2023
tp2024
Rp2025
aa(lp2026
g2
(g683
tp2027
Rp2028
ag2
(g683
tp2029
Rp2030
ag2
(S'0.969'
p2031
tp2032
Rp2033
aa(lp2034
g2
(g683
tp2035
Rp2036
ag2
(g683
tp2037
Rp2038
ag2
(S'0.980'
p2039
tp2040
Rp2041
aa(lp2042
g2
(g683
tp2043
Rp2044
ag2
(g683
tp2045
Rp2046
ag2
(S'0.992'
p2047
tp2048
Rp2049
aa.