(lp0
(lp1
cdecimal
Decimal
p2
(S'0'
p3
tp4
Rp5
ag2
(g3
tp6
Rp7
ag2
(g3
tp8
Rp9
aa(lp10
g2
(S'0.0311'
p11
tp12
Rp13
ag2
(g3
tp14
Rp15
ag2
(S'0.0960'
p16
tp17
Rp18
aa(lp19
g2
(S'0.0623'
p20
tp21
Rp22
ag2
(g3
tp23
Rp24
ag2
(S'0.192'
p25
tp26
Rp27
aa(lp28
g2
(S'0.0934'
p29
tp30
Rp31
ag2
(g3
tp32
Rp33
ag2
(S'0.288'
p34
tp35
Rp36
aa(lp37
g2
(S'0.125'
p38
tp39
Rp40
ag2
(g3
tp41
Rp42
ag2
(S'0.384'
p43
tp44
Rp45
aa(lp46
g2
(S'0.156'
p47
tp48
Rp49
ag2
(g3
tp50
Rp51
ag2
(S'0.480'
p52
tp53
Rp54
aa(lp55
g2
(S'0.187'
p56
tp57
Rp58
ag2
(g3
tp59
Rp60
ag2
(S'0.576'
p61
tp62
Rp63
aa(lp64
g2
(S'0.156'
p65
tp66
Rp67
ag2
(g3
tp68
Rp69
ag2
(S'0.582'
p70
tp71
Rp72
aa(lp73
g2
(S'0.125'
p74
tp75
Rp76
ag2
(g3
tp77
Rp78
ag2
(S'0.589'
p79
tp80
Rp81
aa(lp82
g2
(S'0.0934'
p83
tp84
Rp85
ag2
(g3
tp86
Rp87
ag2
(S'0.595'
p88
tp89
Rp90
aa(lp91
g2
(S'0.0623'
p92
tp93
Rp94
ag2
(g3
tp95
Rp96
ag2
(S'0.602'
p97
tp98
Rp99
aa(lp100
g2
(S'0.0311'
p101
tp102
Rp103
ag2
(g3
tp104
Rp105
ag2
(S'0.608'
p106
tp107
Rp108
aa(lp109
g2
(g3
tp110
Rp111
ag2
(g3
tp112
Rp113
ag2
(S'0.615'
p114
tp115
Rp116
aa(lp117
g2
(g3
tp118
Rp119
ag2
(g3
tp120
Rp121
ag2
(S'0.647'
p122
tp123
Rp124
aa(lp125
g2
(g3
tp126
Rp127
ag2
(g3
tp128
Rp129
ag2
(S'0.680'
p130
tp131
Rp132
aa(lp133
g2
(g3
tp134
Rp135
ag2
(g3
tp136
Rp137
ag2
(S'0.712'
p138
tp139
Rp140
aa(lp141
g2
(g3
tp142
Rp143
ag2
(g3
tp144
Rp145
ag2
(S'0.744'
p146
tp147
Rp148
aa(lp149
g2
(g3
tp150
Rp151
ag2
(g3
tp152
Rp153
ag2
(S'0.777'
p154
tp155
Rp156
aa(lp157
g2
(g3
tp158
Rp159
ag2
(g3
tp160
Rp161
ag2
(S'0.809'
p162
tp163
Rp164
aa(lp165
g2
(g3
tp166
Rp167
ag2
(g3
tp168
Rp169
ag2
(S'0.831'
p170
tp171
Rp172
aa(lp173
g2
(g3
tp174
Rp175
ag2
(g3
tp176
Rp177
ag2
(S'0.852'
p178
tp179
Rp180
aa(lp181
g2
(g3
tp182
Rp183
ag2
(g3
tp184
Rp185
ag2
(S'0.874'
p186
tp187
Rp188
aa(lp189
g2
(g3
tp190
Rp191
ag2
(g3
tp192
Rp193
ag2
(S'0.895'
p194
tp195
Rp196
aa(lp197
g2
(g3
tp198
Rp199
ag2
(g3
tp200
Rp201
ag2
(S'0.916'
p202
tp203
Rp204
aa(lp205
g2
(g3
tp206
Rp207
ag2
(g3
tp208
Rp209
ag2
(S'0.938'
p210
tp211
Rp212
aa(lp213
g2
(g3
tp214
Rp215
ag2
(S'0.0636'
p216
tp217
Rp218
ag2
(S'0.938'
p219
tp220
Rp221
aa(lp222
g2
(g3
tp223
Rp224
ag2
(S'0.127'
p225
tp226
Rp227
ag2
(S'0.938'
p228
tp229
Rp230
aa(lp231
g2
(g3
tp232
Rp233
ag2
(S'0.191'
p234
tp235
Rp236
ag2
(S'0.938'
p237
tp238
Rp239
aa(lp240
g2
(g3
tp241
Rp242
ag2
(S'0.254'
p243
tp244
Rp245
ag2
(S'0.938'
p246
tp247
Rp248
aa(lp249
g2
(g3
tp250
Rp251
ag2
(S'0.318'
p252
tp253
Rp254
ag2
(S'0.938'
p255
tp256
Rp257
aa(lp258
g2
(g3
tp259
Rp260
ag2
(S'0.381'
p261
tp262
Rp263
ag2
(S'0.938'
p264
tp265
Rp266
aa(lp267
g2
(g3
tp268
Rp269
ag2
(S'0.403'
p270
tp271
Rp272
ag2
(S'0.910'
p273
tp274
Rp275
aa(lp276
g2
(g3
tp277
Rp278
ag2
(S'0.425'
p279
tp280
Rp281
ag2
(S'0.882'
p282
tp283
Rp284
aa(lp285
g2
(g3
tp286
Rp287
ag2
(S'0.447'
p288
tp289
Rp290
ag2
(S'0.854'
p291
tp292
Rp293
aa(lp294
g2
(g3
tp295
Rp296
ag2
(S'0.470'
p297
tp298
Rp299
ag2
(S'0.826'
p300
tp301
Rp302
aa(lp303
g2
(g3
tp304
Rp305
ag2
(S'0.492'
p306
tp307
Rp308
ag2
(S'0.798'
p309
tp310
Rp311
aa(lp312
g2
(g3
tp313
Rp314
ag2
(S'0.514'
p315
tp316
Rp317
ag2
(S'0.770'
p318
tp319
Rp320
aa(lp321
g2
(g3
tp322
Rp323
ag2
(S'0.514'
p324
tp325
Rp326
ag2
(S'0.744'
p327
tp328
Rp329
aa(lp330
g2
(g3
tp331
Rp332
ag2
(S'0.515'
p333
tp334
Rp335
ag2
(S'0.719'
p336
tp337
Rp338
aa(lp339
g2
(g3
tp340
Rp341
ag2
(S'0.516'
p342
tp343
Rp344
ag2
(S'0.693'
p345
tp346
Rp347
aa(lp348
g2
(g3
tp349
Rp350
ag2
(S'0.516'
p351
tp352
Rp353
ag2
(S'0.667'
p354
tp355
Rp356
aa(lp357
g2
(g3
tp358
Rp359
ag2
(S'0.517'
p360
tp361
Rp362
ag2
(S'0.641'
p363
tp364
Rp365
aa(lp366
g2
(g3
tp367
Rp368
ag2
(S'0.518'
p369
tp370
Rp371
ag2
(S'0.615'
p372
tp373
Rp374
aa(lp375
g2
(g3
tp376
Rp377
ag2
(S'0.534'
p378
tp379
Rp380
ag2
(S'0.595'
p381
tp382
Rp383
aa(lp384
g2
(g3
tp385
Rp386
ag2
(S'0.550'
p387
tp388
Rp389
ag2
(S'0.576'
p390
tp391
Rp392
aa(lp393
g2
(g3
tp394
Rp395
ag2
(S'0.566'
p396
tp397
Rp398
ag2
(S'0.556'
p399
tp400
Rp401
aa(lp402
g2
(g3
tp403
Rp404
ag2
(S'0.582'
p405
tp406
Rp407
ag2
(S'0.537'
p408
tp409
Rp410
aa(lp411
g2
(g3
tp412
Rp413
ag2
(S'0.599'
p414
tp415
Rp416
ag2
(S'0.518'
p417
tp418
Rp419
aa(lp420
g2
(g3
tp421
Rp422
ag2
(S'0.615'
p423
tp424
Rp425
ag2
(S'0.498'
p426
tp427
Rp428
aa(lp429
g2
(g3
tp430
Rp431
ag2
(S'0.608'
p432
tp433
Rp434
ag2
(S'0.415'
p435
tp436
Rp437
aa(lp438
g2
(g3
tp439
Rp440
ag2
(S'0.602'
p441
tp442
Rp443
ag2
(S'0.332'
p444
tp445
Rp446
aa(lp447
g2
(g3
tp448
Rp449
ag2
(S'0.595'
p450
tp451
Rp452
ag2
(S'0.249'
p453
tp454
Rp455
aa(lp456
g2
(g3
tp457
Rp458
ag2
(S'0.589'
p459
tp460
Rp461
ag2
(S'0.166'
p462
tp463
Rp464
aa(lp465
g2
(g3
tp466
Rp467
ag2
(S'0.582'
p468
tp469
Rp470
ag2
(S'0.0830'
p471
tp472
Rp473
aa(lp474
g2
(g3
tp475
Rp476
ag2
(S'0.576'
p477
tp478
Rp479
ag2
(g3
tp480
Rp481
aa(lp482
g2
(g3
tp483
Rp484
ag2
(S'0.608'
p485
tp486
Rp487
ag2
(g3
tp488
Rp489
aa(lp490
g2
(g3
tp491
Rp492
ag2
(S'0.641'
p493
tp494
Rp495
ag2
(g3
tp496
Rp497
aa(lp498
g2
(g3
tp499
Rp500
ag2
(S'0.673'
p501
tp502
Rp503
ag2
(g3
tp504
Rp505
aa(lp506
g2
(g3
tp507
Rp508
ag2
(S'0.706'
p509
tp510
Rp511
ag2
(g3
tp512
Rp513
aa(lp514
g2
(g3
tp515
Rp516
ag2
(S'0.738'
p517
tp518
Rp519
ag2
(g3
tp520
Rp521
aa(lp522
g2
(g3
tp523
Rp524
ag2
(S'0.770'
p525
tp526
Rp527
ag2
(g3
tp528
Rp529
aa(lp530
g2
(g3
tp531
Rp532
ag2
(S'0.790'
p533
tp534
Rp535
ag2
(g3
tp536
Rp537
aa(lp538
g2
(g3
tp539
Rp540
ag2
(S'0.809'
p541
tp542
Rp543
ag2
(g3
tp544
Rp545
aa(lp546
g2
(g3
tp547
Rp548
ag2
(S'0.829'
p549
tp550
Rp551
ag2
(g3
tp552
Rp553
aa(lp554
g2
(g3
tp555
Rp556
ag2
(S'0.848'
p557
tp558
Rp559
ag2
(g3
tp560
Rp561
aa(lp562
g2
(g3
tp563
Rp564
ag2
(S'0.868'
p565
tp566
Rp567
ag2
(g3
tp568
Rp569
aa(lp570
g2
(g3
tp571
Rp572
ag2
(S'0.887'
p573
tp574
Rp575
ag2
(g3
tp576
Rp577
aa(lp578
g2
(S'0.0830'
p579
tp580
Rp581
ag2
(S'0.894'
p582
tp583
Rp584
ag2
(g3
tp585
Rp586
aa(lp587
g2
(S'0.166'
p588
tp589
Rp590
ag2
(S'0.900'
p591
tp592
Rp593
ag2
(g3
tp594
Rp595
aa(lp596
g2
(S'0.249'
p597
tp598
Rp599
ag2
(S'0.907'
p600
tp601
Rp602
ag2
(g3
tp603
Rp604
aa(lp605
g2
(S'0.332'
p606
tp607
Rp608
ag2
(S'0.913'
p609
tp610
Rp611
ag2
(g3
tp612
Rp613
aa(lp614
g2
(S'0.415'
p615
tp616
Rp617
ag2
(S'0.920'
p618
tp619
Rp620
ag2
(g3
tp621
Rp622
aa(lp623
g2
(S'0.498'
p624
tp625
Rp626
ag2
(S'0.926'
p627
tp628
Rp629
ag2
(g3
tp630
Rp631
aa(lp632
g2
(S'0.543'
p633
tp634
Rp635
ag2
(S'0.928'
p636
tp637
Rp638
ag2
(g3
tp639
Rp640
aa(lp641
g2
(S'0.589'
p642
tp643
Rp644
ag2
(S'0.930'
p645
tp646
Rp647
ag2
(g3
tp648
Rp649
aa(lp650
g2
(S'0.634'
p651
tp652
Rp653
ag2
(S'0.932'
p654
tp655
Rp656
ag2
(g3
tp657
Rp658
aa(lp659
g2
(S'0.680'
p660
tp661
Rp662
ag2
(S'0.934'
p663
tp664
Rp665
ag2
(g3
tp666
Rp667
aa(lp668
g2
(S'0.725'
p669
tp670
Rp671
ag2
(S'0.936'
p672
tp673
Rp674
ag2
(g3
tp675
Rp676
aa(lp677
g2
(S'0.770'
p678
tp679
Rp680
ag2
(S'0.938'
p681
tp682
Rp683
ag2
(g3
tp684
Rp685
aa(lp686
g2
(S'0.798'
p687
tp688
Rp689
ag2
(S'0.938'
p690
tp691
Rp692
ag2
(g3
tp693
Rp694
aa(lp695
g2
(S'0.826'
p696
tp697
Rp698
ag2
(S'0.938'
p699
tp700
Rp701
ag2
(g3
tp702
Rp703
aa(lp704
g2
(S'0.854'
p705
tp706
Rp707
ag2
(S'0.938'
p708
tp709
Rp710
ag2
(g3
tp711
Rp712
aa(lp713
g2
(S'0.882'
p714
tp715
Rp716
ag2
(S'0.938'
p717
tp718
Rp719
ag2
(g3
tp720
Rp721
aa(lp722
g2
(S'0.910'
p723
tp724
Rp725
ag2
(S'0.938'
p726
tp727
Rp728
ag2
(g3
tp729
Rp730
aa(lp731
g2
(S'0.938'
p732
tp733
Rp734
ag2
(S'0.938'
p735
tp736
Rp737
ag2
(g3
tp738
Rp739
aa(lp740
g2
(S'0.938'
p741
tp742
Rp743
ag2
(S'0.916'
p744
tp745
Rp746
ag2
(g3
tp747
Rp748
aa(lp749
g2
(S'0.938'
p750
tp751
Rp752
ag2
(S'0.895'
p753
tp754
Rp755
ag2
(g3
tp756
Rp757
aa(lp758
g2
(S'0.938'
p759
tp760
Rp761
ag2
(S'0.874'
p762
tp763
Rp764
ag2
(g3
tp765
Rp766
aa(lp767
g2
(S'0.938'
p768
tp769
Rp770
ag2
(S'0.852'
p771
tp772
Rp773
ag2
(g3
tp774
Rp775
aa(lp776
g2
(S'0.938'
p777
tp778
Rp779
ag2
(S'0.831'
p780
tp781
Rp782
ag2
(g3
tp783
Rp784
aa(lp785
g2
(S'0.938'
p786
tp787
Rp788
ag2
(S'0.809'
p789
tp790
Rp791
ag2
(g3
tp792
Rp793
aa(lp794
g2
(S'0.938'
p795
tp796
Rp797
ag2
(S'0.790'
p798
tp799
Rp800
ag2
(g3
tp801
Rp802
aa(lp803
g2
(S'0.938'
p804
tp805
Rp806
ag2
(S'0.770'
p807
tp808
Rp809
ag2
(g3
tp810
Rp811
aa(lp812
g2
(S'0.938'
p813
tp814
Rp815
ag2
(S'0.751'
p816
tp817
Rp818
ag2
(g3
tp819
Rp820
aa(lp821
g2
(S'0.938'
p822
tp823
Rp824
ag2
(S'0.732'
p825
tp826
Rp827
ag2
(g3
tp828
Rp829
aa(lp830
g2
(S'0.938'
p831
tp832
Rp833
ag2
(S'0.712'
p834
tp835
Rp836
ag2
(g3
tp837
Rp838
aa(lp839
g2
(S'0.938'
p840
tp841
Rp842
ag2
(S'0.693'
p843
tp844
Rp845
ag2
(g3
tp846
Rp847
aa(lp848
g2
(S'0.938'
p849
tp850
Rp851
ag2
(S'0.669'
p852
tp853
Rp854
ag2
(g3
tp855
Rp856
aa(lp857
g2
(S'0.938'
p858
tp859
Rp860
ag2
(S'0.646'
p861
tp862
Rp863
ag2
(g3
tp864
Rp865
aa(lp866
g2
(S'0.938'
p867
tp868
Rp869
ag2
(S'0.623'
p870
tp871
Rp872
ag2
(g3
tp873
Rp874
aa(lp875
g2
(S'0.938'
p876
tp877
Rp878
ag2
(S'0.599'
p879
tp880
Rp881
ag2
(g3
tp882
Rp883
aa(lp884
g2
(S'0.938'
p885
tp886
Rp887
ag2
(S'0.576'
p888
tp889
Rp890
ag2
(g3
tp891
Rp892
aa(lp893
g2
(S'0.938'
p894
tp895
Rp896
ag2
(S'0.553'
p897
tp898
Rp899
ag2
(g3
tp900
Rp901
aa(lp902
g2
(S'0.938'
p903
tp904
Rp905
ag2
(S'0.524'
p906
tp907
Rp908
ag2
(g3
tp909
Rp910
aa(lp911
g2
(S'0.938'
p912
tp913
Rp914
ag2
(S'0.495'
p915
tp916
Rp917
ag2
(g3
tp918
Rp919
aa(lp920
g2
(S'0.938'
p921
tp922
Rp923
ag2
(S'0.467'
p924
tp925
Rp926
ag2
(g3
tp927
Rp928
aa(lp929
g2
(S'0.938'
p930
tp931
Rp932
ag2
(S'0.438'
p933
tp934
Rp935
ag2
(g3
tp936
Rp937
aa(lp938
g2
(S'0.938'
p939
tp940
Rp941
ag2
(S'0.410'
p942
tp943
Rp944
ag2
(g3
tp945
Rp946
aa(lp947
g2
(S'0.938'
p948
tp949
Rp950
ag2
(S'0.381'
p951
tp952
Rp953
ag2
(g3
tp954
Rp955
aa(lp956
g2
(S'0.938'
p957
tp958
Rp959
ag2
(S'0.318'
p960
tp961
Rp962
ag2
(g3
tp963
Rp964
aa(lp965
g2
(S'0.938'
p966
tp967
Rp968
ag2
(S'0.254'
p969
tp970
Rp971
ag2
(g3
tp972
Rp973
aa(lp974
g2
(S'0.938'
p975
tp976
Rp977
ag2
(S'0.191'
p978
tp979
Rp980
ag2
(g3
tp981
Rp982
aa(lp983
g2
(S'0.938'
p984
tp985
Rp986
ag2
(S'0.127'
p987
tp988
Rp989
ag2
(g3
tp990
Rp991
aa(lp992
g2
(S'0.938'
p993
tp994
Rp995
ag2
(S'0.0636'
p996
tp997
Rp998
ag2
(g3
tp999
Rp1000
aa(lp1001
g2
(S'0.938'
p1002
tp1003
Rp1004
ag2
(g3
tp1005
Rp1006
ag2
(g3
tp1007
Rp1008
aa(lp1009
g2
(S'0.860'
p1010
tp1011
Rp1012
ag2
(g3
tp1013
Rp1014
ag2
(g3
tp1015
Rp1016
aa(lp1017
g2
(S'0.781'
p1018
tp1019
Rp1020
ag2
(g3
tp1021
Rp1022
ag2
(g3
tp1023
Rp1024
aa(lp1025
g2
(S'0.703'
p1026
tp1027
Rp1028
ag2
(g3
tp1029
Rp1030
ag2
(g3
tp1031
Rp1032
aa(lp1033
g2
(S'0.625'
p1034
tp1035
Rp1036
ag2
(g3
tp1037
Rp1038
ag2
(g3
tp1039
Rp1040
aa(lp1041
g2
(S'0.547'
p1042
tp1043
Rp1044
ag2
(g3
tp1045
Rp1046
ag2
(g3
tp1047
Rp1048
aa(lp1049
g2
(S'0.469'
p1050
tp1051
Rp1052
ag2
(g3
tp1053
Rp1054
ag2
(g3
tp1055
Rp1056
aa(lp1057
g2
(S'0.391'
p1058
tp1059
Rp1060
ag2
(g3
tp1061
Rp1062
ag2
(g3
tp1063
Rp1064
aa(lp1065
g2
(S'0.313'
p1066
tp1067
Rp1068
ag2
(g3
tp1069
Rp1070
ag2
(g3
tp1071
Rp1072
aa(lp1073
g2
(S'0.234'
p1074
tp1075
Rp1076
ag2
(g3
tp1077
Rp1078
ag2
(g3
tp1079
Rp1080
aa(lp1081
g2
(S'0.156'
p1082
tp1083
Rp1084
ag2
(g3
tp1085
Rp1086
ag2
(g3
tp1087
Rp1088
aa(lp1089
g2
(S'0.0781'
p1090
tp1091
Rp1092
ag2
(g3
tp1093
Rp1094
ag2
(g3
tp1095
Rp1096
aa(lp1097
g2
(S'0.0389'
p1098
tp1099
Rp1100
ag2
(g3
tp1101
Rp1102
ag2
(g3
tp1103
Rp1104
aa(lp1105
g2
(g3
tp1106
Rp1107
ag2
(g3
tp1108
Rp1109
ag2
(g3
tp1110
Rp1111
aa.